(idecisions_block
DecisionsBlock
p0
(dp1
S'input_memories'
p2
NsS'unconscious_block'
p3
(iunconscious_filtering_block
UnconsciousFilteringBlock
p4
(dp5
S'inputs'
p6
NsS'internal_state'
p7
NsS'desired_state'
p8
NsS'outputs'
p9
Nsbsg8
NsS'conscious_output'
p10
Nsg7
NsS'conscious_block'
p11
(iconscious_decisions_block
ConsciousDecisionsBlock
p12
(dp13
S'decision_prediction_block'
p14
(idecision_by_prediction_block
DecisionByPredictionBlock
p15
(dp16
g6
Nsg8
(iinternal_state
InternalState
p17
(dp18
S'culture'
p19
I1
sS'biology'
p20
F0.5
sS'feelings'
p21
I1
sbsS'predicted_outcomes'
p22
NsS'distances'
p23
Nsg7
(iinternal_state
InternalState
p24
(dp25
g19
F0.5
sg20
F0.5
sg21
F0.5
sbsS'predictive_net'
p26
(imulticlass_single_layer_network
MulticlassSingleLayerNetwork
p27
(dp28
g6
(lp29
I0
aI0
aI0
aI0
aI0
aI0
asS'_activation_function'
p30
cdill.dill
_create_function
p31
(cdill.dill
_load_type
p32
(S'CodeType'
p33
tp34
Rp35
(I1
I1
I1
I83
S'|\x00\x00S'
p36
(Ntp37
(t(S'x'
p38
tp39
S'/home/victory/Documents/brain-CEMISID/multiclass_single_layer_network.py'
p40
S'<lambda>'
p41
I29
S''
p42
(t(ttp43
Rp44
cmulticlass_single_layer_network
__dict__
g41
NN(dp45
tp46
Rp47
sS'weights'
p48
(lp49
(lp50
F0.26435951219747783
aF0.1315055565425474
aF0.13285236681608875
aF0.2316575135966067
aF0.12917137087643932
aF0.1681972218055751
aa(lp51
F0.1599249471954515
aF0.17930886660737858
aF0.13469094980992932
aF0.10556106266440402
aF0.15450338273688496
aF0.13831858767477537
aa(lp52
F0.11916908912058237
aF0.07845408120606404
aF0.24035686087373384
aF0.15159482302886418
aF0.1429758326029033
aF0.19920847553209822
aasS'learning_rate'
p53
F0.1
sg9
(lp54
I0
aI0
aI0
aI0
aI0
aI0
asbsS'output'
p55
Nsbsg8
g17
sS'decision'
p56
Nsg7
g24
sS'_last_selected_input'
p57
NsS'_new_inputs'
p58
I00
sS'_last_decision_internal_state'
p59
NsS'_last_decision_type'
p60
NsS'_inputs'
p61
NsbsS'unconscious_output'
p62
Nsb.