(iepisodic_memories
EpisodicMemoriesBlock
p0
(dp1
S'_clack'
p2
I00
sS'_index_ready_to_learn'
p3
I12
sS'group_list'
p4
(lp5
(icultural_network
CulturalGroup
p6
(dp7
S'_index_bip'
p8
I1
sS'group'
p9
(lp10
ccopy_reg
_reconstructor
p11
(ccultural_network
CulturalNeuron
p12
cdill.dill
_load_type
p13
(S'ObjectType'
p14
tp15
Rp16
Ntp17
Rp18
(dp19
S'_knowledge'
p20
I0
sS'_has_knowledge'
p21
I01
sbag11
(g12
g16
Ntp22
Rp23
(dp24
g20
(iinternal_state
InternalState
p25
(dp26
S'culture'
p27
F0.25
sS'biology'
p28
F0.25
sS'feelings'
p29
F0.25
sbsg21
I01
sbasba(icultural_network
CulturalGroup
p30
(dp31
g8
I1
sg9
(lp32
g11
(g12
g16
Ntp33
Rp34
(dp35
g20
I1
sg21
I01
sbag11
(g12
g16
Ntp36
Rp37
(dp38
g20
(iinternal_state
InternalState
p39
(dp40
g27
F0.25
sg28
F0.25
sg29
F0.25
sbsg21
I01
sbasba(icultural_network
CulturalGroup
p41
(dp42
g8
I1
sg9
(lp43
g11
(g12
g16
Ntp44
Rp45
(dp46
g20
I2
sg21
I01
sbag11
(g12
g16
Ntp47
Rp48
(dp49
g20
(iinternal_state
InternalState
p50
(dp51
g27
F0.7093596059113301
sg28
F0.6699507389162561
sg29
F0.8325123152709359
sbsg21
I01
sbasba(icultural_network
CulturalGroup
p52
(dp53
g8
I1
sg9
(lp54
g11
(g12
g16
Ntp55
Rp56
(dp57
g20
I3
sg21
I01
sbag11
(g12
g16
Ntp58
Rp59
(dp60
g20
(iinternal_state
InternalState
p61
(dp62
g27
F0.4975369458128079
sg28
F1.0
sg29
F0.49261083743842365
sbsg21
I01
sbasba(icultural_network
CulturalGroup
p63
(dp64
g8
I1
sg9
(lp65
g11
(g12
g16
Ntp66
Rp67
(dp68
g20
I4
sg21
I01
sbag11
(g12
g16
Ntp69
Rp70
(dp71
g20
(iinternal_state
InternalState
p72
(dp73
g27
F0.9014778325123153
sg28
F0.43349753694581283
sg29
F0.5566502463054187
sbsg21
I01
sbasba(icultural_network
CulturalGroup
p74
(dp75
g8
I1
sg9
(lp76
g11
(g12
g16
Ntp77
Rp78
(dp79
g20
I5
sg21
I01
sbag11
(g12
g16
Ntp80
Rp81
(dp82
g20
(iinternal_state
InternalState
p83
(dp84
g27
F0.25
sg28
F0.25
sg29
F0.25
sbsg21
I01
sbasba(icultural_network
CulturalGroup
p85
(dp86
g8
I1
sg9
(lp87
g11
(g12
g16
Ntp88
Rp89
(dp90
g20
I6
sg21
I01
sbag11
(g12
g16
Ntp91
Rp92
(dp93
g20
(iinternal_state
InternalState
p94
(dp95
g27
F0.25
sg28
F0.25
sg29
F0.25
sbsg21
I01
sbasba(icultural_network
CulturalGroup
p96
(dp97
g8
I1
sg9
(lp98
g11
(g12
g16
Ntp99
Rp100
(dp101
g20
I7
sg21
I01
sbag11
(g12
g16
Ntp102
Rp103
(dp104
g20
(iinternal_state
InternalState
p105
(dp106
g27
F0.25
sg28
F0.25
sg29
F0.25
sbsg21
I01
sbasba(icultural_network
CulturalGroup
p107
(dp108
g8
I1
sg9
(lp109
g11
(g12
g16
Ntp110
Rp111
(dp112
g20
I8
sg21
I01
sbag11
(g12
g16
Ntp113
Rp114
(dp115
g20
(iinternal_state
InternalState
p116
(dp117
g27
F0.25
sg28
F0.25
sg29
F0.25
sbsg21
I01
sbasba(icultural_network
CulturalGroup
p118
(dp119
g8
I1
sg9
(lp120
g11
(g12
g16
Ntp121
Rp122
(dp123
g20
I9
sg21
I01
sbag11
(g12
g16
Ntp124
Rp125
(dp126
g20
(iinternal_state
InternalState
p127
(dp128
g27
F0.25
sg28
F0.25
sg29
F0.25
sbsg21
I01
sbasba(icultural_network
CulturalGroup
p129
(dp130
g8
I1
sg9
(lp131
g11
(g12
g16
Ntp132
Rp133
(dp134
g20
I10
sg21
I01
sbag11
(g12
g16
Ntp135
Rp136
(dp137
g20
(iinternal_state
InternalState
p138
(dp139
g27
F0.25
sg28
F0.25
sg29
F0.25
sbsg21
I01
sbasba(icultural_network
CulturalGroup
p140
(dp141
g8
I0
sg9
(lp142
g11
(g12
g16
Ntp143
Rp144
(dp145
g20
I11
sg21
I01
sbag11
(g12
g16
Ntp146
Rp147
(dp148
g20
(iinternal_state
InternalState
p149
(dp150
g27
F0.25
sg28
F0.25
sg29
F0.25
sbsg21
I01
sbasba(icultural_network
CulturalGroup
p151
(dp152
g8
I0
sg9
(lp153
sba(icultural_network
CulturalGroup
p154
(dp155
g8
I0
sg9
(lp156
sba(icultural_network
CulturalGroup
p157
(dp158
g8
I0
sg9
(lp159
sba(icultural_network
CulturalGroup
p160
(dp161
g8
I0
sg9
(lp162
sbasS'_recognized_indexes'
p163
(lp164
sb.