(igeometric_neural_block
GeometricNeuralBlock
p0
(dp1
S'_operation'
p2
S'COUNT'
p3
sS'_addition_structure'
p4
(igeometric_neural_block
AdditionStructure
p5
(dp6
S'index'
p7
I0
sS'neurons'
p8
(lp9
ccopy_reg
_reconstructor
p10
(cneuron
Neuron
p11
cdill.dill
_load_type
p12
(S'ObjectType'
p13
tp14
Rp15
Ntp16
Rp17
(dp18
S'_knowledge'
p19
NsS'_has_knowledge'
p20
I00
sbag10
(g11
g15
Ntp21
Rp22
(dp23
g19
Nsg20
I00
sbag10
(g11
g15
Ntp24
Rp25
(dp26
g19
Nsg20
I00
sbag10
(g11
g15
Ntp27
Rp28
(dp29
g19
Nsg20
I00
sbag10
(g11
g15
Ntp30
Rp31
(dp32
g19
Nsg20
I00
sbag10
(g11
g15
Ntp33
Rp34
(dp35
g19
Nsg20
I00
sbag10
(g11
g15
Ntp36
Rp37
(dp38
g19
Nsg20
I00
sbag10
(g11
g15
Ntp39
Rp40
(dp41
g19
Nsg20
I00
sbag10
(g11
g15
Ntp42
Rp43
(dp44
g19
Nsg20
I00
sbag10
(g11
g15
Ntp45
Rp46
(dp47
g19
Nsg20
I00
sbasS'carry_over'
p48
I00
sbsS'_op2_queue'
p49
(lp50
sS'_zero'
p51
NsS'_op1_queue'
p52
(lp53
sS'_operator'
p54
NsS'_add_operator'
p55
I8
sS'_order_structure'
p56
(igeometric_neural_block
QuantityOrderNetwork
p57
(dp58
S'group_list'
p59
(lp60
(igeometric_neural_block
QuantityOrderGroup
p61
(dp62
S'_order_neuron'
p63
g10
(cgeometric_neural_block
OrderNeuron
p64
g15
Ntp65
Rp66
(dp67
g19
Nsg20
I00
sbsS'_quantity_neuron'
p68
g10
(cgeometric_neural_block
QuantityNeuron
p69
g15
Ntp70
Rp71
(dp72
g19
I6
sg20
I01
sbsS'_has_quantity'
p73
I01
sba(igeometric_neural_block
QuantityOrderGroup
p74
(dp75
g63
g10
(g64
g15
Ntp76
Rp77
(dp78
g19
Nsg20
I00
sbsg68
g10
(g69
g15
Ntp79
Rp80
(dp81
g19
I7
sg20
I01
sbsg73
I01
sbasS'_index'
p82
I2
sbsS'_equal_sign'
p83
I9
sb.