(isensory_neural_block
RbfNetwork
p0
(dp1
S'_state'
p2
S'MISS'
p3
sS'neuron_list'
p4
(lp5
ccopy_reg
_reconstructor
p6
(csensory_neural_block
RbfNeuron
p7
cdill.dill
_load_type
p8
(S'ObjectType'
p9
tp10
Rp11
Ntp12
Rp13
(dp14
S'_degraded'
p15
I00
sS'_hit'
p16
I00
sS'_has_knowledge'
p17
I01
sS'_distance'
p18
F106.0
sS'_knowledge'
p19
(isensory_neural_block
RbfKnowledge
p20
(dp21
S'_pattern'
p22
(lp23
I0
aI0
aI0
aI0
aI0
aI0
aI0
aI0
aI0
aI0
aI0
aI0
aI0
aI0
aI0
aI0
aI8
aI15
aI7
aI0
aI0
aI8
aI0
aI0
aI0
aI8
aI0
aI0
aI0
aI0
aI1
aI0
aI0
aI0
aI3
aI0
aI0
aI8
aI1
aI0
aI0
aI8
aI1
aI0
aI0
aI8
aI0
aI0
aI0
aI8
aI0
aI0
aI0
aI0
aI0
aI0
aI0
aI0
aI0
aI0
aI0
aI0
aI0
aI0
asS'_class'
p24
Vone
p25
sS'_set'
p26
S'NoSet'
p27
sbsS'_radius'
p28
I10
sbag6
(g7
g11
Ntp29
Rp30
(dp31
g15
I00
sg16
I00
sg17
I01
sg18
F52.0
sg19
(isensory_neural_block
RbfKnowledge
p32
(dp33
g22
(lp34
I0
aI0
aI0
aI0
aI0
aI0
aI0
aI0
aI0
aI0
aI0
aI0
aI0
aI0
aI0
aI0
aI0
aI0
aI0
aI0
aI0
aI0
aI0
aI0
aI0
aI0
aI0
aI0
aI0
aI0
aI0
aI0
aI0
aI0
aI0
aI0
aI0
aI0
aI0
aI0
aI0
aI0
aI0
aI0
aI0
aI0
aI0
aI0
aI0
aI0
aI0
aI0
aI0
aI0
aI0
aI0
aI0
aI0
aI0
aI15
aI0
aI0
aI0
aI15
asg24
Va
p35
sg26
S'NoSet'
p36
sbsg28
I10
sbag6
(g7
g11
Ntp37
Rp38
(dp39
g15
I00
sg16
I00
sg17
I01
sg18
F36.0
sg19
(isensory_neural_block
RbfKnowledge
p40
(dp41
g22
(lp42
I0
aI0
aI0
aI0
aI0
aI0
aI0
aI0
aI0
aI0
aI0
aI0
aI0
aI0
aI0
aI0
aI0
aI0
aI0
aI0
aI0
aI0
aI0
aI0
aI0
aI0
aI0
aI0
aI0
aI0
aI0
aI0
aI0
aI0
aI0
aI0
aI0
aI0
aI0
aI0
aI0
aI0
aI0
aI0
aI0
aI0
aI0
aI0
aI0
aI0
aI0
aI0
aI0
aI0
aI0
aI2
aI0
aI0
aI0
aI4
aI0
aI0
aI0
aI8
asg24
VCubo
p43
sg26
S'NoSet'
p44
sbsg28
I10
sbag6
(g7
g11
Ntp45
Rp46
(dp47
g15
I00
sg16
I00
sg17
I01
sg18
F40.0
sg19
(isensory_neural_block
RbfKnowledge
p48
(dp49
g22
(lp50
I1
aI0
aI0
aI8
aI0
aI0
aI0
aI0
aI0
aI0
aI0
aI0
aI0
aI0
aI0
aI0
aI0
aI0
aI0
aI0
aI0
aI0
aI0
aI0
aI0
aI0
aI0
aI0
aI0
aI0
aI0
aI0
aI0
aI0
aI0
aI0
aI0
aI0
aI0
aI0
aI0
aI0
aI0
aI0
aI0
aI0
aI0
aI0
aI0
aI0
aI0
aI0
aI0
aI0
aI0
aI0
aI0
aI0
aI0
aI0
aI1
aI0
aI0
aI8
asg24
Vcubo
p51
sg26
S'NoSet'
p52
sbsg28
I10
sbag6
(g7
g11
Ntp53
Rp54
(dp55
g15
I00
sg16
I00
sg17
I01
sg18
F97.0
sg19
(isensory_neural_block
RbfKnowledge
p56
(dp57
g22
(lp58
I1
aI0
aI0
aI0
aI1
aI0
aI0
aI0
aI1
aI0
aI0
aI0
aI1
aI0
aI0
aI0
aI1
aI0
aI0
aI0
aI1
aI0
aI0
aI0
aI1
aI0
aI0
aI0
aI1
aI0
aI0
aI0
aI1
aI0
aI0
aI0
aI1
aI0
aI0
aI0
aI1
aI0
aI0
aI0
aI1
aI0
aI0
aI0
aI1
aI0
aI0
aI0
aI1
aI0
aI0
aI0
aI1
aI0
aI0
aI0
aI15
aI15
aI15
aI15
asg24
Vtriangulo
p59
sg26
g52
sbsg28
I10
sbag6
(g7
g11
Ntp60
Rp61
(dp62
g15
I00
sg16
I00
sg17
I01
sg18
F91.0
sg19
(isensory_neural_block
RbfKnowledge
p63
(dp64
g22
(lp65
I1
aI0
aI0
aI8
aI0
aI0
aI0
aI0
aI0
aI0
aI0
aI0
aI0
aI0
aI0
aI0
aI0
aI0
aI0
aI0
aI0
aI0
aI0
aI0
aI0
aI0
aI0
aI0
aI0
aI0
aI0
aI0
aI0
aI0
aI0
aI0
aI0
aI0
aI0
aI0
aI0
aI0
aI0
aI0
aI0
aI0
aI0
aI0
aI0
aI0
aI0
aI0
aI0
aI0
aI0
aI0
aI0
aI0
aI0
aI0
aI15
aI15
aI15
aI15
asg24
Va
p66
sg26
S'NoSet'
p67
sbsg28
F9.0
sbag6
(g7
g11
Ntp68
Rp69
(dp70
g15
I00
sg16
I00
sg17
I01
sg18
F130.0
sg19
(isensory_neural_block
RbfKnowledge
p71
(dp72
g22
(lp73
I0
aI0
aI0
aI0
aI0
aI0
aI0
aI0
aI0
aI0
aI0
aI8
aI0
aI0
aI0
aI8
aI0
aI0
aI0
aI8
aI0
aI0
aI0
aI8
aI0
aI0
aI0
aI8
aI0
aI0
aI0
aI8
aI0
aI0
aI0
aI8
aI0
aI0
aI0
aI8
aI0
aI0
aI0
aI8
aI0
aI0
aI0
aI8
aI0
aI0
aI0
aI8
aI0
aI0
aI0
aI8
aI0
aI0
aI0
aI8
aI0
aI0
aI0
aI8
asg24
Vone
p74
sg26
S'NoSet'
p75
sbsg28
I10
sbag6
(g7
g11
Ntp76
Rp77
(dp78
g15
I00
sg16
I00
sg17
I01
sg18
F82.0
sg19
(isensory_neural_block
RbfKnowledge
p79
(dp80
g22
(lp81
I0
aI0
aI0
aI0
aI0
aI0
aI0
aI0
aI0
aI0
aI0
aI0
aI0
aI0
aI0
aI0
aI0
aI0
aI0
aI0
aI0
aI0
aI0
aI0
aI0
aI0
aI0
aI0
aI0
aI0
aI0
aI0
aI0
aI0
aI0
aI0
aI0
aI0
aI0
aI0
aI0
aI0
aI0
aI0
aI0
aI0
aI0
aI0
aI0
aI0
aI0
aI0
aI0
aI0
aI0
aI0
aI0
aI0
aI0
aI0
aI15
aI15
aI15
aI15
asg24
V2
p82
sg26
g75
sbsg28
F9.0
sbag6
(g7
g11
Ntp83
Rp84
(dp85
g15
I00
sg16
I00
sg17
I01
sg18
F51.0
sg19
(isensory_neural_block
RbfKnowledge
p86
(dp87
g22
(lp88
I0
aI8
aI1
aI0
aI0
aI12
aI0
aI0
aI0
aI8
aI0
aI0
aI0
aI0
aI0
aI0
aI0
aI0
aI0
aI0
aI0
aI0
aI0
aI0
aI0
aI0
aI0
aI0
aI0
aI0
aI0
aI0
aI0
aI0
aI0
aI0
aI0
aI0
aI0
aI0
aI0
aI0
aI0
aI0
aI0
aI0
aI0
aI0
aI0
aI0
aI0
aI0
aI0
aI0
aI0
aI0
aI0
aI0
aI0
aI0
aI0
aI0
aI0
aI0
asg24
Vmas
p89
sg26
g75
sbsg28
I10
sbag6
(g7
g11
Ntp90
Rp91
(dp92
g15
I00
sg16
I00
sg17
I01
sg18
F50.0
sg19
(isensory_neural_block
RbfKnowledge
p93
(dp94
g22
(lp95
I0
aI0
aI0
aI0
aI0
aI0
aI0
aI0
aI0
aI0
aI0
aI0
aI0
aI14
aI0
aI0
aI0
aI0
aI0
aI0
aI0
aI14
aI0
aI0
aI0
aI0
aI0
aI0
aI0
aI0
aI0
aI0
aI0
aI0
aI0
aI0
aI0
aI0
aI0
aI0
aI0
aI0
aI0
aI0
aI0
aI0
aI0
aI0
aI0
aI0
aI0
aI0
aI0
aI0
aI0
aI0
aI0
aI0
aI0
aI0
aI0
aI0
aI0
aI0
asg24
Veq
p96
sg26
g75
sbsg28
I10
sbag6
(g7
g11
Ntp97
Rp98
(dp99
g15
I00
sg16
I00
sg17
I01
sg18
F84.0
sg19
(isensory_neural_block
RbfKnowledge
p100
(dp101
g22
(lp102
I0
aI0
aI0
aI0
aI0
aI0
aI0
aI0
aI0
aI0
aI0
aI0
aI0
aI0
aI0
aI0
aI0
aI0
aI0
aI0
aI0
aI0
aI0
aI0
aI0
aI0
aI1
aI0
aI0
aI8
aI6
aI0
aI0
aI8
aI8
aI0
aI0
aI8
aI8
aI0
aI0
aI0
aI15
aI0
aI0
aI0
aI0
aI0
aI0
aI0
aI0
aI0
aI0
aI0
aI0
aI0
aI0
aI0
aI0
aI0
aI0
aI0
aI0
aI0
asg24
Vcuadro
p103
sg26
S'NoSet'
p104
sbsg28
I10
sbag6
(g7
g11
Ntp105
Rp106
(dp107
g15
I00
sg19
(isensory_neural_block
RbfKnowledge
p108
(dp109
g22
(lp110
I0
aI0
aI0
aI0
aI0
aI0
aI0
aI0
aI0
aI0
aI8
aI1
aI0
aI0
aI12
aI1
aI0
aI0
aI0
aI0
aI0
aI0
aI0
aI0
aI0
aI0
aI0
aI0
aI0
aI0
aI0
aI0
aI0
aI0
aI0
aI0
aI0
aI0
aI0
aI0
aI0
aI0
aI0
aI0
aI0
aI0
aI0
aI0
aI0
aI0
aI0
aI0
aI0
aI0
aI0
aI0
aI0
aI0
aI0
aI0
aI0
aI0
aI0
aI0
asg24
Vpelota
p111
sg26
g104
sbsg28
I10
sg17
I01
sbag6
(g7
g11
Ntp112
Rp113
(dp114
g15
I00
sg19
Nsg28
I24
sg17
I00
sbag6
(g7
g11
Ntp115
Rp116
(dp117
g15
I00
sg19
Nsg28
I24
sg17
I00
sbag6
(g7
g11
Ntp118
Rp119
(dp120
g15
I00
sg19
Nsg28
I24
sg17
I00
sbag6
(g7
g11
Ntp121
Rp122
(dp123
g15
I00
sg19
Nsg28
I24
sg17
I00
sbag6
(g7
g11
Ntp124
Rp125
(dp126
g15
I00
sg19
Nsg28
I24
sg17
I00
sbag6
(g7
g11
Ntp127
Rp128
(dp129
g15
I00
sg19
Nsg28
I24
sg17
I00
sbag6
(g7
g11
Ntp130
Rp131
(dp132
g15
I00
sg19
Nsg28
I24
sg17
I00
sbag6
(g7
g11
Ntp133
Rp134
(dp135
g15
I00
sg19
Nsg28
I24
sg17
I00
sbag6
(g7
g11
Ntp136
Rp137
(dp138
g15
I00
sg19
Nsg28
I24
sg17
I00
sbag6
(g7
g11
Ntp139
Rp140
(dp141
g15
I00
sg19
Nsg28
I24
sg17
I00
sbag6
(g7
g11
Ntp142
Rp143
(dp144
g15
I00
sg19
Nsg28
I24
sg17
I00
sbag6
(g7
g11
Ntp145
Rp146
(dp147
g15
I00
sg19
Nsg28
I24
sg17
I00
sbag6
(g7
g11
Ntp148
Rp149
(dp150
g15
I00
sg19
Nsg28
I24
sg17
I00
sbag6
(g7
g11
Ntp151
Rp152
(dp153
g15
I00
sg19
Nsg28
I24
sg17
I00
sbag6
(g7
g11
Ntp154
Rp155
(dp156
g15
I00
sg19
Nsg28
I24
sg17
I00
sbag6
(g7
g11
Ntp157
Rp158
(dp159
g15
I00
sg19
Nsg28
I24
sg17
I00
sbag6
(g7
g11
Ntp160
Rp161
(dp162
g15
I00
sg19
Nsg28
I24
sg17
I00
sbag6
(g7
g11
Ntp163
Rp164
(dp165
g15
I00
sg19
Nsg28
I24
sg17
I00
sbag6
(g7
g11
Ntp166
Rp167
(dp168
g15
I00
sg19
Nsg28
I24
sg17
I00
sbag6
(g7
g11
Ntp169
Rp170
(dp171
g15
I00
sg19
Nsg28
I24
sg17
I00
sbag6
(g7
g11
Ntp172
Rp173
(dp174
g15
I00
sg19
Nsg28
I24
sg17
I00
sbag6
(g7
g11
Ntp175
Rp176
(dp177
g15
I00
sg19
Nsg28
I24
sg17
I00
sbag6
(g7
g11
Ntp178
Rp179
(dp180
g15
I00
sg19
Nsg28
I24
sg17
I00
sbag6
(g7
g11
Ntp181
Rp182
(dp183
g15
I00
sg19
Nsg28
I24
sg17
I00
sbag6
(g7
g11
Ntp184
Rp185
(dp186
g15
I00
sg19
Nsg28
I24
sg17
I00
sbag6
(g7
g11
Ntp187
Rp188
(dp189
g15
I00
sg19
Nsg28
I24
sg17
I00
sbag6
(g7
g11
Ntp190
Rp191
(dp192
g15
I00
sg19
Nsg28
I24
sg17
I00
sbag6
(g7
g11
Ntp193
Rp194
(dp195
g15
I00
sg19
Nsg28
I24
sg17
I00
sbag6
(g7
g11
Ntp196
Rp197
(dp198
g15
I00
sg19
Nsg28
I24
sg17
I00
sbag6
(g7
g11
Ntp199
Rp200
(dp201
g15
I00
sg19
Nsg28
I24
sg17
I00
sbag6
(g7
g11
Ntp202
Rp203
(dp204
g15
I00
sg19
Nsg28
I24
sg17
I00
sbag6
(g7
g11
Ntp205
Rp206
(dp207
g15
I00
sg19
Nsg28
I24
sg17
I00
sbag6
(g7
g11
Ntp208
Rp209
(dp210
g15
I00
sg19
Nsg28
I24
sg17
I00
sbag6
(g7
g11
Ntp211
Rp212
(dp213
g15
I00
sg19
Nsg28
I24
sg17
I00
sbag6
(g7
g11
Ntp214
Rp215
(dp216
g15
I00
sg19
Nsg28
I24
sg17
I00
sbag6
(g7
g11
Ntp217
Rp218
(dp219
g15
I00
sg19
Nsg28
I24
sg17
I00
sbag6
(g7
g11
Ntp220
Rp221
(dp222
g15
I00
sg19
Nsg28
I24
sg17
I00
sbag6
(g7
g11
Ntp223
Rp224
(dp225
g15
I00
sg19
Nsg28
I24
sg17
I00
sbag6
(g7
g11
Ntp226
Rp227
(dp228
g15
I00
sg19
Nsg28
I24
sg17
I00
sbag6
(g7
g11
Ntp229
Rp230
(dp231
g15
I00
sg19
Nsg28
I24
sg17
I00
sbag6
(g7
g11
Ntp232
Rp233
(dp234
g15
I00
sg19
Nsg28
I24
sg17
I00
sbag6
(g7
g11
Ntp235
Rp236
(dp237
g15
I00
sg19
Nsg28
I24
sg17
I00
sbag6
(g7
g11
Ntp238
Rp239
(dp240
g15
I00
sg19
Nsg28
I24
sg17
I00
sbag6
(g7
g11
Ntp241
Rp242
(dp243
g15
I00
sg19
Nsg28
I24
sg17
I00
sbag6
(g7
g11
Ntp244
Rp245
(dp246
g15
I00
sg19
Nsg28
I24
sg17
I00
sbag6
(g7
g11
Ntp247
Rp248
(dp249
g15
I00
sg19
Nsg28
I24
sg17
I00
sbag6
(g7
g11
Ntp250
Rp251
(dp252
g15
I00
sg19
Nsg28
I24
sg17
I00
sbag6
(g7
g11
Ntp253
Rp254
(dp255
g15
I00
sg19
Nsg28
I24
sg17
I00
sbag6
(g7
g11
Ntp256
Rp257
(dp258
g15
I00
sg19
Nsg28
I24
sg17
I00
sbag6
(g7
g11
Ntp259
Rp260
(dp261
g15
I00
sg19
Nsg28
I24
sg17
I00
sbag6
(g7
g11
Ntp262
Rp263
(dp264
g15
I00
sg19
Nsg28
I24
sg17
I00
sbag6
(g7
g11
Ntp265
Rp266
(dp267
g15
I00
sg19
Nsg28
I24
sg17
I00
sbag6
(g7
g11
Ntp268
Rp269
(dp270
g15
I00
sg19
Nsg28
I24
sg17
I00
sbag6
(g7
g11
Ntp271
Rp272
(dp273
g15
I00
sg19
Nsg28
I24
sg17
I00
sbag6
(g7
g11
Ntp274
Rp275
(dp276
g15
I00
sg19
Nsg28
I24
sg17
I00
sbag6
(g7
g11
Ntp277
Rp278
(dp279
g15
I00
sg19
Nsg28
I24
sg17
I00
sbag6
(g7
g11
Ntp280
Rp281
(dp282
g15
I00
sg19
Nsg28
I24
sg17
I00
sbag6
(g7
g11
Ntp283
Rp284
(dp285
g15
I00
sg19
Nsg28
I24
sg17
I00
sbag6
(g7
g11
Ntp286
Rp287
(dp288
g15
I00
sg19
Nsg28
I24
sg17
I00
sbag6
(g7
g11
Ntp289
Rp290
(dp291
g15
I00
sg19
Nsg28
I24
sg17
I00
sbag6
(g7
g11
Ntp292
Rp293
(dp294
g15
I00
sg19
Nsg28
I24
sg17
I00
sbag6
(g7
g11
Ntp295
Rp296
(dp297
g15
I00
sg19
Nsg28
I24
sg17
I00
sbag6
(g7
g11
Ntp298
Rp299
(dp300
g15
I00
sg19
Nsg28
I24
sg17
I00
sbag6
(g7
g11
Ntp301
Rp302
(dp303
g15
I00
sg19
Nsg28
I24
sg17
I00
sbag6
(g7
g11
Ntp304
Rp305
(dp306
g15
I00
sg19
Nsg28
I24
sg17
I00
sbag6
(g7
g11
Ntp307
Rp308
(dp309
g15
I00
sg19
Nsg28
I24
sg17
I00
sbag6
(g7
g11
Ntp310
Rp311
(dp312
g15
I00
sg19
Nsg28
I24
sg17
I00
sbag6
(g7
g11
Ntp313
Rp314
(dp315
g15
I00
sg19
Nsg28
I24
sg17
I00
sbag6
(g7
g11
Ntp316
Rp317
(dp318
g15
I00
sg19
Nsg28
I24
sg17
I00
sbag6
(g7
g11
Ntp319
Rp320
(dp321
g15
I00
sg19
Nsg28
I24
sg17
I00
sbag6
(g7
g11
Ntp322
Rp323
(dp324
g15
I00
sg19
Nsg28
I24
sg17
I00
sbag6
(g7
g11
Ntp325
Rp326
(dp327
g15
I00
sg19
Nsg28
I24
sg17
I00
sbag6
(g7
g11
Ntp328
Rp329
(dp330
g15
I00
sg19
Nsg28
I24
sg17
I00
sbag6
(g7
g11
Ntp331
Rp332
(dp333
g15
I00
sg19
Nsg28
I24
sg17
I00
sbag6
(g7
g11
Ntp334
Rp335
(dp336
g15
I00
sg19
Nsg28
I24
sg17
I00
sbag6
(g7
g11
Ntp337
Rp338
(dp339
g15
I00
sg19
Nsg28
I24
sg17
I00
sbag6
(g7
g11
Ntp340
Rp341
(dp342
g15
I00
sg19
Nsg28
I24
sg17
I00
sbag6
(g7
g11
Ntp343
Rp344
(dp345
g15
I00
sg19
Nsg28
I24
sg17
I00
sbag6
(g7
g11
Ntp346
Rp347
(dp348
g15
I00
sg19
Nsg28
I24
sg17
I00
sbag6
(g7
g11
Ntp349
Rp350
(dp351
g15
I00
sg19
Nsg28
I24
sg17
I00
sbag6
(g7
g11
Ntp352
Rp353
(dp354
g15
I00
sg19
Nsg28
I24
sg17
I00
sbag6
(g7
g11
Ntp355
Rp356
(dp357
g15
I00
sg19
Nsg28
I24
sg17
I00
sbag6
(g7
g11
Ntp358
Rp359
(dp360
g15
I00
sg19
Nsg28
I24
sg17
I00
sbag6
(g7
g11
Ntp361
Rp362
(dp363
g15
I00
sg19
Nsg28
I24
sg17
I00
sbag6
(g7
g11
Ntp364
Rp365
(dp366
g15
I00
sg19
Nsg28
I24
sg17
I00
sbag6
(g7
g11
Ntp367
Rp368
(dp369
g15
I00
sg19
Nsg28
I24
sg17
I00
sbag6
(g7
g11
Ntp370
Rp371
(dp372
g15
I00
sg19
Nsg28
I24
sg17
I00
sbag6
(g7
g11
Ntp373
Rp374
(dp375
g15
I00
sg19
Nsg28
I24
sg17
I00
sbasS'_index_recognize'
p376
(lp377
sS'_index_ready_to_learn'
p378
I12
sS'_last_learned_id'
p379
I11
sb.