(isensory_neural_block
RbfNetwork
p0
(dp1
S'_state'
p2
S'MISS'
p3
sS'neuron_list'
p4
(lp5
ccopy_reg
_reconstructor
p6
(csensory_neural_block
RbfNeuron
p7
cdill.dill
_load_type
p8
(S'ObjectType'
p9
tp10
Rp11
Ntp12
Rp13
(dp14
S'_degraded'
p15
I00
sS'_hit'
p16
I00
sS'_has_knowledge'
p17
I01
sS'_distance'
p18
F108.0
sS'_knowledge'
p19
(isensory_neural_block
RbfKnowledge
p20
(dp21
S'_pattern'
p22
(lp23
I0
aI0
aI0
aI0
aI0
aI0
aI0
aI0
aI0
aI0
aI0
aI0
aI0
aI0
aI0
aI0
aI8
aI15
aI7
aI0
aI0
aI8
aI0
aI0
aI0
aI8
aI0
aI0
aI0
aI0
aI1
aI0
aI0
aI0
aI3
aI0
aI0
aI8
aI1
aI0
aI0
aI8
aI1
aI0
aI0
aI8
aI0
aI0
aI0
aI8
aI0
aI0
aI0
aI0
aI0
aI0
aI0
aI0
aI0
aI0
aI0
aI0
aI0
aI0
asS'_class'
p24
Vone
p25
sS'_set'
p26
S'NoSet'
p27
sbsS'_radius'
p28
I10
sbag6
(g7
g11
Ntp29
Rp30
(dp31
g15
I00
sg16
I00
sg17
I01
sg18
F54.0
sg19
(isensory_neural_block
RbfKnowledge
p32
(dp33
g22
(lp34
I0
aI0
aI0
aI0
aI0
aI0
aI0
aI0
aI0
aI0
aI0
aI0
aI0
aI0
aI0
aI0
aI0
aI0
aI0
aI0
aI0
aI0
aI0
aI0
aI0
aI0
aI0
aI0
aI0
aI0
aI0
aI0
aI0
aI0
aI0
aI0
aI0
aI0
aI0
aI0
aI0
aI0
aI0
aI0
aI0
aI0
aI0
aI0
aI0
aI0
aI0
aI0
aI0
aI0
aI0
aI0
aI0
aI0
aI0
aI15
aI0
aI0
aI0
aI15
asg24
Va
p35
sg26
S'NoSet'
p36
sbsg28
F6.0
sbag6
(g7
g11
Ntp37
Rp38
(dp39
g15
I00
sg16
I00
sg17
I01
sg18
F38.0
sg19
(isensory_neural_block
RbfKnowledge
p40
(dp41
g22
(lp42
I0
aI0
aI0
aI0
aI0
aI0
aI0
aI0
aI0
aI0
aI0
aI0
aI0
aI0
aI0
aI0
aI0
aI0
aI0
aI0
aI0
aI0
aI0
aI0
aI0
aI0
aI0
aI0
aI0
aI0
aI0
aI0
aI0
aI0
aI0
aI0
aI0
aI0
aI0
aI0
aI0
aI0
aI0
aI0
aI0
aI0
aI0
aI0
aI0
aI0
aI0
aI0
aI0
aI0
aI0
aI2
aI0
aI0
aI0
aI4
aI0
aI0
aI0
aI8
asg24
VCubo
p43
sg26
S'NoSet'
p44
sbsg28
I10
sbag6
(g7
g11
Ntp45
Rp46
(dp47
g15
I00
sg16
I00
sg17
I01
sg18
F26.0
sg19
(isensory_neural_block
RbfKnowledge
p48
(dp49
g22
(lp50
I1
aI0
aI0
aI8
aI0
aI0
aI0
aI0
aI0
aI0
aI0
aI0
aI0
aI0
aI0
aI0
aI0
aI0
aI0
aI0
aI0
aI0
aI0
aI0
aI0
aI0
aI0
aI0
aI0
aI0
aI0
aI0
aI0
aI0
aI0
aI0
aI0
aI0
aI0
aI0
aI0
aI0
aI0
aI0
aI0
aI0
aI0
aI0
aI0
aI0
aI0
aI0
aI0
aI0
aI0
aI0
aI0
aI0
aI0
aI0
aI1
aI0
aI0
aI8
asg24
Vcubo
p51
sg26
S'NoSet'
p52
sbsg28
I10
sbag6
(g7
g11
Ntp53
Rp54
(dp55
g15
I00
sg16
I00
sg17
I01
sg18
F99.0
sg19
(isensory_neural_block
RbfKnowledge
p56
(dp57
g22
(lp58
I1
aI0
aI0
aI0
aI1
aI0
aI0
aI0
aI1
aI0
aI0
aI0
aI1
aI0
aI0
aI0
aI1
aI0
aI0
aI0
aI1
aI0
aI0
aI0
aI1
aI0
aI0
aI0
aI1
aI0
aI0
aI0
aI1
aI0
aI0
aI0
aI1
aI0
aI0
aI0
aI1
aI0
aI0
aI0
aI1
aI0
aI0
aI0
aI1
aI0
aI0
aI0
aI1
aI0
aI0
aI0
aI1
aI0
aI0
aI0
aI15
aI15
aI15
aI15
asg24
Vtriangulo
p59
sg26
g52
sbsg28
I10
sbag6
(g7
g11
Ntp60
Rp61
(dp62
g15
I00
sg16
I00
sg17
I01
sg18
F77.0
sg19
(isensory_neural_block
RbfKnowledge
p63
(dp64
g22
(lp65
I1
aI0
aI0
aI8
aI0
aI0
aI0
aI0
aI0
aI0
aI0
aI0
aI0
aI0
aI0
aI0
aI0
aI0
aI0
aI0
aI0
aI0
aI0
aI0
aI0
aI0
aI0
aI0
aI0
aI0
aI0
aI0
aI0
aI0
aI0
aI0
aI0
aI0
aI0
aI0
aI0
aI0
aI0
aI0
aI0
aI0
aI0
aI0
aI0
aI0
aI0
aI0
aI0
aI0
aI0
aI0
aI0
aI0
aI0
aI0
aI15
aI15
aI15
aI15
asg24
Va
p66
sg26
S'NoSet'
p67
sbsg28
F9.0
sbag6
(g7
g11
Ntp68
Rp69
(dp70
g15
I00
sg16
I00
sg17
I01
sg18
F136.0
sg19
(isensory_neural_block
RbfKnowledge
p71
(dp72
g22
(lp73
I0
aI0
aI0
aI0
aI0
aI0
aI0
aI0
aI0
aI0
aI0
aI8
aI0
aI0
aI0
aI8
aI0
aI0
aI0
aI8
aI0
aI0
aI0
aI8
aI0
aI0
aI0
aI8
aI0
aI0
aI0
aI8
aI0
aI0
aI0
aI8
aI0
aI0
aI0
aI8
aI0
aI0
aI0
aI8
aI0
aI0
aI0
aI8
aI0
aI0
aI0
aI8
aI0
aI0
aI0
aI8
aI0
aI0
aI0
aI8
aI0
aI0
aI0
aI8
asg24
Vone
p74
sg26
S'NoSet'
p75
sbsg28
I10
sbag6
(g7
g11
Ntp76
Rp77
(dp78
g15
I00
sg16
I00
sg17
I01
sg18
F84.0
sg19
(isensory_neural_block
RbfKnowledge
p79
(dp80
g22
(lp81
I0
aI0
aI0
aI0
aI0
aI0
aI0
aI0
aI0
aI0
aI0
aI0
aI0
aI0
aI0
aI0
aI0
aI0
aI0
aI0
aI0
aI0
aI0
aI0
aI0
aI0
aI0
aI0
aI0
aI0
aI0
aI0
aI0
aI0
aI0
aI0
aI0
aI0
aI0
aI0
aI0
aI0
aI0
aI0
aI0
aI0
aI0
aI0
aI0
aI0
aI0
aI0
aI0
aI0
aI0
aI0
aI0
aI0
aI0
aI0
aI15
aI15
aI15
aI15
asg24
V2
p82
sg26
g75
sbsg28
F9.0
sbag6
(g7
g11
Ntp83
Rp84
(dp85
g15
I00
sg16
I00
sg17
I01
sg18
F53.0
sg19
(isensory_neural_block
RbfKnowledge
p86
(dp87
g22
(lp88
I0
aI8
aI1
aI0
aI0
aI12
aI0
aI0
aI0
aI8
aI0
aI0
aI0
aI0
aI0
aI0
aI0
aI0
aI0
aI0
aI0
aI0
aI0
aI0
aI0
aI0
aI0
aI0
aI0
aI0
aI0
aI0
aI0
aI0
aI0
aI0
aI0
aI0
aI0
aI0
aI0
aI0
aI0
aI0
aI0
aI0
aI0
aI0
aI0
aI0
aI0
aI0
aI0
aI0
aI0
aI0
aI0
aI0
aI0
aI0
aI0
aI0
aI0
aI0
asg24
Vmas
p89
sg26
g75
sbsg28
I10
sbag6
(g7
g11
Ntp90
Rp91
(dp92
g15
I00
sg16
I00
sg17
I01
sg18
F52.0
sg19
(isensory_neural_block
RbfKnowledge
p93
(dp94
g22
(lp95
I0
aI0
aI0
aI0
aI0
aI0
aI0
aI0
aI0
aI0
aI0
aI0
aI0
aI14
aI0
aI0
aI0
aI0
aI0
aI0
aI0
aI14
aI0
aI0
aI0
aI0
aI0
aI0
aI0
aI0
aI0
aI0
aI0
aI0
aI0
aI0
aI0
aI0
aI0
aI0
aI0
aI0
aI0
aI0
aI0
aI0
aI0
aI0
aI0
aI0
aI0
aI0
aI0
aI0
aI0
aI0
aI0
aI0
aI0
aI0
aI0
aI0
aI0
aI0
asg24
Veq
p96
sg26
g75
sbsg28
I10
sbag6
(g7
g11
Ntp97
Rp98
(dp99
g15
I00
sg16
I00
sg17
I01
sg18
F86.0
sg19
(isensory_neural_block
RbfKnowledge
p100
(dp101
g22
(lp102
I0
aI0
aI0
aI0
aI0
aI0
aI0
aI0
aI0
aI0
aI0
aI0
aI0
aI0
aI0
aI0
aI0
aI0
aI0
aI0
aI0
aI0
aI0
aI0
aI0
aI0
aI1
aI0
aI0
aI8
aI6
aI0
aI0
aI8
aI8
aI0
aI0
aI8
aI8
aI0
aI0
aI0
aI15
aI0
aI0
aI0
aI0
aI0
aI0
aI0
aI0
aI0
aI0
aI0
aI0
aI0
aI0
aI0
aI0
aI0
aI0
aI0
aI0
aI0
asg24
Vcuadro
p103
sg26
S'NoSet'
p104
sbsg28
I10
sbag6
(g7
g11
Ntp105
Rp106
(dp107
g15
I00
sg16
I00
sg17
I01
sg18
F46.0
sg19
(isensory_neural_block
RbfKnowledge
p108
(dp109
g22
(lp110
I0
aI0
aI0
aI0
aI0
aI0
aI0
aI0
aI0
aI0
aI8
aI1
aI0
aI0
aI12
aI1
aI0
aI0
aI0
aI0
aI0
aI0
aI0
aI0
aI0
aI0
aI0
aI0
aI0
aI0
aI0
aI0
aI0
aI0
aI0
aI0
aI0
aI0
aI0
aI0
aI0
aI0
aI0
aI0
aI0
aI0
aI0
aI0
aI0
aI0
aI0
aI0
aI0
aI0
aI0
aI0
aI0
aI0
aI0
aI0
aI0
aI0
aI0
aI0
asg24
Vpelota
p111
sg26
g104
sbsg28
I10
sbag6
(g7
g11
Ntp112
Rp113
(dp114
g15
I00
sg16
I00
sg17
I01
sg18
F48.0
sg19
(isensory_neural_block
RbfKnowledge
p115
(dp116
g22
(lp117
I0
aI0
aI0
aI0
aI0
aI0
aI0
aI0
aI0
aI0
aI0
aI0
aI0
aI0
aI0
aI0
aI0
aI0
aI0
aI0
aI0
aI0
aI0
aI0
aI0
aI0
aI0
aI0
aI0
aI0
aI0
aI0
aI0
aI0
aI0
aI0
aI0
aI0
aI0
aI0
aI0
aI0
aI0
aI0
aI0
aI0
aI0
aI0
aI0
aI0
aI0
aI0
aI0
aI0
aI0
aI0
aI0
aI0
aI0
aI12
aI0
aI0
aI0
aI12
asg24
VManzana
p118
sg26
S'NoSet'
p119
sbsg28
F6.0
sbag6
(g7
g11
Ntp120
Rp121
(dp122
g15
I00
sg16
I00
sg17
I01
sg18
F30.0
sg19
(isensory_neural_block
RbfKnowledge
p123
(dp124
g22
(lp125
I0
aI0
aI0
aI0
aI0
aI0
aI0
aI0
aI0
aI0
aI0
aI0
aI0
aI0
aI0
aI0
aI0
aI0
aI0
aI0
aI0
aI0
aI0
aI0
aI0
aI0
aI0
aI0
aI0
aI0
aI0
aI0
aI0
aI0
aI0
aI0
aI0
aI0
aI0
aI0
aI0
aI0
aI0
aI0
aI0
aI0
aI0
aI0
aI0
aI0
aI0
aI0
aI0
aI0
aI0
aI0
aI3
aI0
aI0
aI0
aI3
aI0
aI0
aI0
asg24
VMusica
p126
sg26
g119
sbsg28
I10
sbag6
(g7
g11
Ntp127
Rp128
(dp129
g15
I00
sg19
(isensory_neural_block
RbfKnowledge
p130
(dp131
g22
(lp132
I0
aI0
aI0
aI12
aI0
aI0
aI0
aI12
aI0
aI0
aI0
aI0
aI0
aI0
aI0
aI0
aI0
aI0
aI0
aI0
aI0
aI0
aI0
aI0
aI0
aI0
aI0
aI0
aI0
aI0
aI0
aI0
aI0
aI0
aI0
aI0
aI0
aI0
aI0
aI0
aI0
aI0
aI0
aI0
aI0
aI0
aI0
aI0
aI0
aI0
aI0
aI0
aI0
aI0
aI0
aI0
aI0
aI0
aI0
aI0
aI0
aI0
aI0
aI0
asg24
VFutbol
p133
sg26
g119
sbsg28
I10
sg17
I01
sbag6
(g7
g11
Ntp134
Rp135
(dp136
g15
I00
sg19
Nsg28
I24
sg17
I00
sbag6
(g7
g11
Ntp137
Rp138
(dp139
g15
I00
sg19
Nsg28
I24
sg17
I00
sbag6
(g7
g11
Ntp140
Rp141
(dp142
g15
I00
sg19
Nsg28
I24
sg17
I00
sbag6
(g7
g11
Ntp143
Rp144
(dp145
g15
I00
sg19
Nsg28
I24
sg17
I00
sbag6
(g7
g11
Ntp146
Rp147
(dp148
g15
I00
sg19
Nsg28
I24
sg17
I00
sbag6
(g7
g11
Ntp149
Rp150
(dp151
g15
I00
sg19
Nsg28
I24
sg17
I00
sbag6
(g7
g11
Ntp152
Rp153
(dp154
g15
I00
sg19
Nsg28
I24
sg17
I00
sbag6
(g7
g11
Ntp155
Rp156
(dp157
g15
I00
sg19
Nsg28
I24
sg17
I00
sbag6
(g7
g11
Ntp158
Rp159
(dp160
g15
I00
sg19
Nsg28
I24
sg17
I00
sbag6
(g7
g11
Ntp161
Rp162
(dp163
g15
I00
sg19
Nsg28
I24
sg17
I00
sbag6
(g7
g11
Ntp164
Rp165
(dp166
g15
I00
sg19
Nsg28
I24
sg17
I00
sbag6
(g7
g11
Ntp167
Rp168
(dp169
g15
I00
sg19
Nsg28
I24
sg17
I00
sbag6
(g7
g11
Ntp170
Rp171
(dp172
g15
I00
sg19
Nsg28
I24
sg17
I00
sbag6
(g7
g11
Ntp173
Rp174
(dp175
g15
I00
sg19
Nsg28
I24
sg17
I00
sbag6
(g7
g11
Ntp176
Rp177
(dp178
g15
I00
sg19
Nsg28
I24
sg17
I00
sbag6
(g7
g11
Ntp179
Rp180
(dp181
g15
I00
sg19
Nsg28
I24
sg17
I00
sbag6
(g7
g11
Ntp182
Rp183
(dp184
g15
I00
sg19
Nsg28
I24
sg17
I00
sbag6
(g7
g11
Ntp185
Rp186
(dp187
g15
I00
sg19
Nsg28
I24
sg17
I00
sbag6
(g7
g11
Ntp188
Rp189
(dp190
g15
I00
sg19
Nsg28
I24
sg17
I00
sbag6
(g7
g11
Ntp191
Rp192
(dp193
g15
I00
sg19
Nsg28
I24
sg17
I00
sbag6
(g7
g11
Ntp194
Rp195
(dp196
g15
I00
sg19
Nsg28
I24
sg17
I00
sbag6
(g7
g11
Ntp197
Rp198
(dp199
g15
I00
sg19
Nsg28
I24
sg17
I00
sbag6
(g7
g11
Ntp200
Rp201
(dp202
g15
I00
sg19
Nsg28
I24
sg17
I00
sbag6
(g7
g11
Ntp203
Rp204
(dp205
g15
I00
sg19
Nsg28
I24
sg17
I00
sbag6
(g7
g11
Ntp206
Rp207
(dp208
g15
I00
sg19
Nsg28
I24
sg17
I00
sbag6
(g7
g11
Ntp209
Rp210
(dp211
g15
I00
sg19
Nsg28
I24
sg17
I00
sbag6
(g7
g11
Ntp212
Rp213
(dp214
g15
I00
sg19
Nsg28
I24
sg17
I00
sbag6
(g7
g11
Ntp215
Rp216
(dp217
g15
I00
sg19
Nsg28
I24
sg17
I00
sbag6
(g7
g11
Ntp218
Rp219
(dp220
g15
I00
sg19
Nsg28
I24
sg17
I00
sbag6
(g7
g11
Ntp221
Rp222
(dp223
g15
I00
sg19
Nsg28
I24
sg17
I00
sbag6
(g7
g11
Ntp224
Rp225
(dp226
g15
I00
sg19
Nsg28
I24
sg17
I00
sbag6
(g7
g11
Ntp227
Rp228
(dp229
g15
I00
sg19
Nsg28
I24
sg17
I00
sbag6
(g7
g11
Ntp230
Rp231
(dp232
g15
I00
sg19
Nsg28
I24
sg17
I00
sbag6
(g7
g11
Ntp233
Rp234
(dp235
g15
I00
sg19
Nsg28
I24
sg17
I00
sbag6
(g7
g11
Ntp236
Rp237
(dp238
g15
I00
sg19
Nsg28
I24
sg17
I00
sbag6
(g7
g11
Ntp239
Rp240
(dp241
g15
I00
sg19
Nsg28
I24
sg17
I00
sbag6
(g7
g11
Ntp242
Rp243
(dp244
g15
I00
sg19
Nsg28
I24
sg17
I00
sbag6
(g7
g11
Ntp245
Rp246
(dp247
g15
I00
sg19
Nsg28
I24
sg17
I00
sbag6
(g7
g11
Ntp248
Rp249
(dp250
g15
I00
sg19
Nsg28
I24
sg17
I00
sbag6
(g7
g11
Ntp251
Rp252
(dp253
g15
I00
sg19
Nsg28
I24
sg17
I00
sbag6
(g7
g11
Ntp254
Rp255
(dp256
g15
I00
sg19
Nsg28
I24
sg17
I00
sbag6
(g7
g11
Ntp257
Rp258
(dp259
g15
I00
sg19
Nsg28
I24
sg17
I00
sbag6
(g7
g11
Ntp260
Rp261
(dp262
g15
I00
sg19
Nsg28
I24
sg17
I00
sbag6
(g7
g11
Ntp263
Rp264
(dp265
g15
I00
sg19
Nsg28
I24
sg17
I00
sbag6
(g7
g11
Ntp266
Rp267
(dp268
g15
I00
sg19
Nsg28
I24
sg17
I00
sbag6
(g7
g11
Ntp269
Rp270
(dp271
g15
I00
sg19
Nsg28
I24
sg17
I00
sbag6
(g7
g11
Ntp272
Rp273
(dp274
g15
I00
sg19
Nsg28
I24
sg17
I00
sbag6
(g7
g11
Ntp275
Rp276
(dp277
g15
I00
sg19
Nsg28
I24
sg17
I00
sbag6
(g7
g11
Ntp278
Rp279
(dp280
g15
I00
sg19
Nsg28
I24
sg17
I00
sbag6
(g7
g11
Ntp281
Rp282
(dp283
g15
I00
sg19
Nsg28
I24
sg17
I00
sbag6
(g7
g11
Ntp284
Rp285
(dp286
g15
I00
sg19
Nsg28
I24
sg17
I00
sbag6
(g7
g11
Ntp287
Rp288
(dp289
g15
I00
sg19
Nsg28
I24
sg17
I00
sbag6
(g7
g11
Ntp290
Rp291
(dp292
g15
I00
sg19
Nsg28
I24
sg17
I00
sbag6
(g7
g11
Ntp293
Rp294
(dp295
g15
I00
sg19
Nsg28
I24
sg17
I00
sbag6
(g7
g11
Ntp296
Rp297
(dp298
g15
I00
sg19
Nsg28
I24
sg17
I00
sbag6
(g7
g11
Ntp299
Rp300
(dp301
g15
I00
sg19
Nsg28
I24
sg17
I00
sbag6
(g7
g11
Ntp302
Rp303
(dp304
g15
I00
sg19
Nsg28
I24
sg17
I00
sbag6
(g7
g11
Ntp305
Rp306
(dp307
g15
I00
sg19
Nsg28
I24
sg17
I00
sbag6
(g7
g11
Ntp308
Rp309
(dp310
g15
I00
sg19
Nsg28
I24
sg17
I00
sbag6
(g7
g11
Ntp311
Rp312
(dp313
g15
I00
sg19
Nsg28
I24
sg17
I00
sbag6
(g7
g11
Ntp314
Rp315
(dp316
g15
I00
sg19
Nsg28
I24
sg17
I00
sbag6
(g7
g11
Ntp317
Rp318
(dp319
g15
I00
sg19
Nsg28
I24
sg17
I00
sbag6
(g7
g11
Ntp320
Rp321
(dp322
g15
I00
sg19
Nsg28
I24
sg17
I00
sbag6
(g7
g11
Ntp323
Rp324
(dp325
g15
I00
sg19
Nsg28
I24
sg17
I00
sbag6
(g7
g11
Ntp326
Rp327
(dp328
g15
I00
sg19
Nsg28
I24
sg17
I00
sbag6
(g7
g11
Ntp329
Rp330
(dp331
g15
I00
sg19
Nsg28
I24
sg17
I00
sbag6
(g7
g11
Ntp332
Rp333
(dp334
g15
I00
sg19
Nsg28
I24
sg17
I00
sbag6
(g7
g11
Ntp335
Rp336
(dp337
g15
I00
sg19
Nsg28
I24
sg17
I00
sbag6
(g7
g11
Ntp338
Rp339
(dp340
g15
I00
sg19
Nsg28
I24
sg17
I00
sbag6
(g7
g11
Ntp341
Rp342
(dp343
g15
I00
sg19
Nsg28
I24
sg17
I00
sbag6
(g7
g11
Ntp344
Rp345
(dp346
g15
I00
sg19
Nsg28
I24
sg17
I00
sbag6
(g7
g11
Ntp347
Rp348
(dp349
g15
I00
sg19
Nsg28
I24
sg17
I00
sbag6
(g7
g11
Ntp350
Rp351
(dp352
g15
I00
sg19
Nsg28
I24
sg17
I00
sbag6
(g7
g11
Ntp353
Rp354
(dp355
g15
I00
sg19
Nsg28
I24
sg17
I00
sbag6
(g7
g11
Ntp356
Rp357
(dp358
g15
I00
sg19
Nsg28
I24
sg17
I00
sbag6
(g7
g11
Ntp359
Rp360
(dp361
g15
I00
sg19
Nsg28
I24
sg17
I00
sbag6
(g7
g11
Ntp362
Rp363
(dp364
g15
I00
sg19
Nsg28
I24
sg17
I00
sbag6
(g7
g11
Ntp365
Rp366
(dp367
g15
I00
sg19
Nsg28
I24
sg17
I00
sbag6
(g7
g11
Ntp368
Rp369
(dp370
g15
I00
sg19
Nsg28
I24
sg17
I00
sbag6
(g7
g11
Ntp371
Rp372
(dp373
g15
I00
sg19
Nsg28
I24
sg17
I00
sbag6
(g7
g11
Ntp374
Rp375
(dp376
g15
I00
sg19
Nsg28
I24
sg17
I00
sbag6
(g7
g11
Ntp377
Rp378
(dp379
g15
I00
sg19
Nsg28
I24
sg17
I00
sbag6
(g7
g11
Ntp380
Rp381
(dp382
g15
I00
sg19
Nsg28
I24
sg17
I00
sbag6
(g7
g11
Ntp383
Rp384
(dp385
g15
I00
sg19
Nsg28
I24
sg17
I00
sbag6
(g7
g11
Ntp386
Rp387
(dp388
g15
I00
sg19
Nsg28
I24
sg17
I00
sbasS'_index_recognize'
p389
(lp390
sS'_index_ready_to_learn'
p391
I15
sS'_last_learned_id'
p392
I14
sb.