(irel_network
RelNetwork
p0
(dp1
S'neuron_list'
p2
(lp3
ccopy_reg
_reconstructor
p4
(crel_network
RelNeuron
p5
cdill.dill
_load_type
p6
(S'ObjectType'
p7
tp8
Rp9
Ntp10
Rp11
(dp12
S'_hit'
p13
I00
sS'_knowledge'
p14
NsS'_has_knowledge'
p15
I00
sbag4
(g5
g9
Ntp16
Rp17
(dp18
g13
I00
sg14
Nsg15
I00
sbag4
(g5
g9
Ntp19
Rp20
(dp21
g13
I00
sg14
Nsg15
I00
sbag4
(g5
g9
Ntp22
Rp23
(dp24
g13
I00
sg14
Nsg15
I00
sbag4
(g5
g9
Ntp25
Rp26
(dp27
g13
I00
sg14
Nsg15
I00
sbag4
(g5
g9
Ntp28
Rp29
(dp30
g13
I00
sg14
Nsg15
I00
sbag4
(g5
g9
Ntp31
Rp32
(dp33
g13
I00
sg14
Nsg15
I00
sbag4
(g5
g9
Ntp34
Rp35
(dp36
g13
I00
sg14
Nsg15
I00
sbag4
(g5
g9
Ntp37
Rp38
(dp39
g13
I00
sg14
Nsg15
I00
sbag4
(g5
g9
Ntp40
Rp41
(dp42
g13
I00
sg14
Nsg15
I00
sbag4
(g5
g9
Ntp43
Rp44
(dp45
g13
I00
sg14
Nsg15
I00
sbag4
(g5
g9
Ntp46
Rp47
(dp48
g13
I00
sg14
Nsg15
I00
sbag4
(g5
g9
Ntp49
Rp50
(dp51
g13
I00
sg14
Nsg15
I00
sbag4
(g5
g9
Ntp52
Rp53
(dp54
g13
I00
sg14
Nsg15
I00
sbag4
(g5
g9
Ntp55
Rp56
(dp57
g13
I00
sg14
Nsg15
I00
sbag4
(g5
g9
Ntp58
Rp59
(dp60
g13
I00
sg14
Nsg15
I00
sbag4
(g5
g9
Ntp61
Rp62
(dp63
g13
I00
sg14
Nsg15
I00
sbag4
(g5
g9
Ntp64
Rp65
(dp66
g13
I00
sg14
Nsg15
I00
sbag4
(g5
g9
Ntp67
Rp68
(dp69
g13
I00
sg14
Nsg15
I00
sbag4
(g5
g9
Ntp70
Rp71
(dp72
g13
I00
sg14
Nsg15
I00
sbag4
(g5
g9
Ntp73
Rp74
(dp75
g13
I00
sg14
Nsg15
I00
sbag4
(g5
g9
Ntp76
Rp77
(dp78
g13
I00
sg14
Nsg15
I00
sbag4
(g5
g9
Ntp79
Rp80
(dp81
g13
I00
sg14
Nsg15
I00
sbag4
(g5
g9
Ntp82
Rp83
(dp84
g13
I00
sg14
Nsg15
I00
sbag4
(g5
g9
Ntp85
Rp86
(dp87
g13
I00
sg14
Nsg15
I00
sbag4
(g5
g9
Ntp88
Rp89
(dp90
g13
I00
sg14
Nsg15
I00
sbag4
(g5
g9
Ntp91
Rp92
(dp93
g13
I00
sg14
Nsg15
I00
sbag4
(g5
g9
Ntp94
Rp95
(dp96
g13
I00
sg14
Nsg15
I00
sbag4
(g5
g9
Ntp97
Rp98
(dp99
g13
I00
sg14
Nsg15
I00
sbag4
(g5
g9
Ntp100
Rp101
(dp102
g13
I00
sg14
Nsg15
I00
sbag4
(g5
g9
Ntp103
Rp104
(dp105
g13
I00
sg14
Nsg15
I00
sbag4
(g5
g9
Ntp106
Rp107
(dp108
g13
I00
sg14
Nsg15
I00
sbag4
(g5
g9
Ntp109
Rp110
(dp111
g13
I00
sg14
Nsg15
I00
sbag4
(g5
g9
Ntp112
Rp113
(dp114
g13
I00
sg14
Nsg15
I00
sbag4
(g5
g9
Ntp115
Rp116
(dp117
g13
I00
sg14
Nsg15
I00
sbag4
(g5
g9
Ntp118
Rp119
(dp120
g13
I00
sg14
Nsg15
I00
sbag4
(g5
g9
Ntp121
Rp122
(dp123
g13
I00
sg14
Nsg15
I00
sbag4
(g5
g9
Ntp124
Rp125
(dp126
g13
I00
sg14
Nsg15
I00
sbag4
(g5
g9
Ntp127
Rp128
(dp129
g13
I00
sg14
Nsg15
I00
sbag4
(g5
g9
Ntp130
Rp131
(dp132
g13
I00
sg14
Nsg15
I00
sbag4
(g5
g9
Ntp133
Rp134
(dp135
g13
I00
sg14
Nsg15
I00
sbag4
(g5
g9
Ntp136
Rp137
(dp138
g13
I00
sg14
Nsg15
I00
sbag4
(g5
g9
Ntp139
Rp140
(dp141
g13
I00
sg14
Nsg15
I00
sbag4
(g5
g9
Ntp142
Rp143
(dp144
g13
I00
sg14
Nsg15
I00
sbag4
(g5
g9
Ntp145
Rp146
(dp147
g13
I00
sg14
Nsg15
I00
sbag4
(g5
g9
Ntp148
Rp149
(dp150
g13
I00
sg14
Nsg15
I00
sbag4
(g5
g9
Ntp151
Rp152
(dp153
g13
I00
sg14
Nsg15
I00
sbag4
(g5
g9
Ntp154
Rp155
(dp156
g13
I00
sg14
Nsg15
I00
sbag4
(g5
g9
Ntp157
Rp158
(dp159
g13
I00
sg14
Nsg15
I00
sbag4
(g5
g9
Ntp160
Rp161
(dp162
g13
I00
sg14
Nsg15
I00
sbag4
(g5
g9
Ntp163
Rp164
(dp165
g13
I00
sg14
Nsg15
I00
sbag4
(g5
g9
Ntp166
Rp167
(dp168
g13
I00
sg14
Nsg15
I00
sbag4
(g5
g9
Ntp169
Rp170
(dp171
g13
I00
sg14
Nsg15
I00
sbag4
(g5
g9
Ntp172
Rp173
(dp174
g13
I00
sg14
Nsg15
I00
sbag4
(g5
g9
Ntp175
Rp176
(dp177
g13
I00
sg14
Nsg15
I00
sbag4
(g5
g9
Ntp178
Rp179
(dp180
g13
I00
sg14
Nsg15
I00
sbag4
(g5
g9
Ntp181
Rp182
(dp183
g13
I00
sg14
Nsg15
I00
sbag4
(g5
g9
Ntp184
Rp185
(dp186
g13
I00
sg14
Nsg15
I00
sbag4
(g5
g9
Ntp187
Rp188
(dp189
g13
I00
sg14
Nsg15
I00
sbag4
(g5
g9
Ntp190
Rp191
(dp192
g13
I00
sg14
Nsg15
I00
sbag4
(g5
g9
Ntp193
Rp194
(dp195
g13
I00
sg14
Nsg15
I00
sbag4
(g5
g9
Ntp196
Rp197
(dp198
g13
I00
sg14
Nsg15
I00
sbag4
(g5
g9
Ntp199
Rp200
(dp201
g13
I00
sg14
Nsg15
I00
sbag4
(g5
g9
Ntp202
Rp203
(dp204
g13
I00
sg14
Nsg15
I00
sbag4
(g5
g9
Ntp205
Rp206
(dp207
g13
I00
sg14
Nsg15
I00
sbag4
(g5
g9
Ntp208
Rp209
(dp210
g13
I00
sg14
Nsg15
I00
sbag4
(g5
g9
Ntp211
Rp212
(dp213
g13
I00
sg14
Nsg15
I00
sbag4
(g5
g9
Ntp214
Rp215
(dp216
g13
I00
sg14
Nsg15
I00
sbag4
(g5
g9
Ntp217
Rp218
(dp219
g13
I00
sg14
Nsg15
I00
sbag4
(g5
g9
Ntp220
Rp221
(dp222
g13
I00
sg14
Nsg15
I00
sbag4
(g5
g9
Ntp223
Rp224
(dp225
g13
I00
sg14
Nsg15
I00
sbag4
(g5
g9
Ntp226
Rp227
(dp228
g13
I00
sg14
Nsg15
I00
sbag4
(g5
g9
Ntp229
Rp230
(dp231
g13
I00
sg14
Nsg15
I00
sbag4
(g5
g9
Ntp232
Rp233
(dp234
g13
I00
sg14
Nsg15
I00
sbag4
(g5
g9
Ntp235
Rp236
(dp237
g13
I00
sg14
Nsg15
I00
sbag4
(g5
g9
Ntp238
Rp239
(dp240
g13
I00
sg14
Nsg15
I00
sbag4
(g5
g9
Ntp241
Rp242
(dp243
g13
I00
sg14
Nsg15
I00
sbag4
(g5
g9
Ntp244
Rp245
(dp246
g13
I00
sg14
Nsg15
I00
sbag4
(g5
g9
Ntp247
Rp248
(dp249
g13
I00
sg14
Nsg15
I00
sbag4
(g5
g9
Ntp250
Rp251
(dp252
g13
I00
sg14
Nsg15
I00
sbag4
(g5
g9
Ntp253
Rp254
(dp255
g13
I00
sg14
Nsg15
I00
sbag4
(g5
g9
Ntp256
Rp257
(dp258
g13
I00
sg14
Nsg15
I00
sbag4
(g5
g9
Ntp259
Rp260
(dp261
g13
I00
sg14
Nsg15
I00
sbag4
(g5
g9
Ntp262
Rp263
(dp264
g13
I00
sg14
Nsg15
I00
sbag4
(g5
g9
Ntp265
Rp266
(dp267
g13
I00
sg14
Nsg15
I00
sbag4
(g5
g9
Ntp268
Rp269
(dp270
g13
I00
sg14
Nsg15
I00
sbag4
(g5
g9
Ntp271
Rp272
(dp273
g13
I00
sg14
Nsg15
I00
sbag4
(g5
g9
Ntp274
Rp275
(dp276
g13
I00
sg14
Nsg15
I00
sbag4
(g5
g9
Ntp277
Rp278
(dp279
g13
I00
sg14
Nsg15
I00
sbag4
(g5
g9
Ntp280
Rp281
(dp282
g13
I00
sg14
Nsg15
I00
sbag4
(g5
g9
Ntp283
Rp284
(dp285
g13
I00
sg14
Nsg15
I00
sbag4
(g5
g9
Ntp286
Rp287
(dp288
g13
I00
sg14
Nsg15
I00
sbag4
(g5
g9
Ntp289
Rp290
(dp291
g13
I00
sg14
Nsg15
I00
sbag4
(g5
g9
Ntp292
Rp293
(dp294
g13
I00
sg14
Nsg15
I00
sbag4
(g5
g9
Ntp295
Rp296
(dp297
g13
I00
sg14
Nsg15
I00
sbag4
(g5
g9
Ntp298
Rp299
(dp300
g13
I00
sg14
Nsg15
I00
sbag4
(g5
g9
Ntp301
Rp302
(dp303
g13
I00
sg14
Nsg15
I00
sbag4
(g5
g9
Ntp304
Rp305
(dp306
g13
I00
sg14
Nsg15
I00
sbag4
(g5
g9
Ntp307
Rp308
(dp309
g13
I00
sg14
Nsg15
I00
sbag4
(g5
g9
Ntp310
Rp311
(dp312
g13
I00
sg14
Nsg15
I00
sbasS'_index_ready_to_learn'
p313
I0
sb.