(icultural_network
CulturalNetwork
p0
(dp1
S'_clack'
p2
I00
sS'_index_ready_to_learn'
p3
I1
sS'group_list'
p4
(lp5
(icultural_network
CulturalGroup
p6
(dp7
S'_index_bip'
p8
I0
sS'group'
p9
(lp10
ccopy_reg
_reconstructor
p11
(ccultural_network
CulturalNeuron
p12
c__builtin__
object
p13
Ntp14
Rp15
(dp16
S'_knowledge'
p17
I2
sS'_has_knowledge'
p18
I01
sbag11
(g12
g13
Ntp19
Rp20
(dp21
g17
I2
sg18
I01
sbasba(icultural_network
CulturalGroup
p22
(dp23
g8
I0
sg9
(lp24
sba(icultural_network
CulturalGroup
p25
(dp26
g8
I0
sg9
(lp27
sba(icultural_network
CulturalGroup
p28
(dp29
g8
I0
sg9
(lp30
sba(icultural_network
CulturalGroup
p31
(dp32
g8
I0
sg9
(lp33
sba(icultural_network
CulturalGroup
p34
(dp35
g8
I0
sg9
(lp36
sba(icultural_network
CulturalGroup
p37
(dp38
g8
I0
sg9
(lp39
sba(icultural_network
CulturalGroup
p40
(dp41
g8
I0
sg9
(lp42
sba(icultural_network
CulturalGroup
p43
(dp44
g8
I0
sg9
(lp45
sba(icultural_network
CulturalGroup
p46
(dp47
g8
I0
sg9
(lp48
sba(icultural_network
CulturalGroup
p49
(dp50
g8
I0
sg9
(lp51
sba(icultural_network
CulturalGroup
p52
(dp53
g8
I0
sg9
(lp54
sba(icultural_network
CulturalGroup
p55
(dp56
g8
I0
sg9
(lp57
sba(icultural_network
CulturalGroup
p58
(dp59
g8
I0
sg9
(lp60
sba(icultural_network
CulturalGroup
p61
(dp62
g8
I0
sg9
(lp63
sba(icultural_network
CulturalGroup
p64
(dp65
g8
I0
sg9
(lp66
sba(icultural_network
CulturalGroup
p67
(dp68
g8
I0
sg9
(lp69
sba(icultural_network
CulturalGroup
p70
(dp71
g8
I0
sg9
(lp72
sba(icultural_network
CulturalGroup
p73
(dp74
g8
I0
sg9
(lp75
sba(icultural_network
CulturalGroup
p76
(dp77
g8
I0
sg9
(lp78
sba(icultural_network
CulturalGroup
p79
(dp80
g8
I0
sg9
(lp81
sba(icultural_network
CulturalGroup
p82
(dp83
g8
I0
sg9
(lp84
sba(icultural_network
CulturalGroup
p85
(dp86
g8
I0
sg9
(lp87
sba(icultural_network
CulturalGroup
p88
(dp89
g8
I0
sg9
(lp90
sba(icultural_network
CulturalGroup
p91
(dp92
g8
I0
sg9
(lp93
sba(icultural_network
CulturalGroup
p94
(dp95
g8
I0
sg9
(lp96
sba(icultural_network
CulturalGroup
p97
(dp98
g8
I0
sg9
(lp99
sba(icultural_network
CulturalGroup
p100
(dp101
g8
I0
sg9
(lp102
sba(icultural_network
CulturalGroup
p103
(dp104
g8
I0
sg9
(lp105
sba(icultural_network
CulturalGroup
p106
(dp107
g8
I0
sg9
(lp108
sba(icultural_network
CulturalGroup
p109
(dp110
g8
I0
sg9
(lp111
sba(icultural_network
CulturalGroup
p112
(dp113
g8
I0
sg9
(lp114
sba(icultural_network
CulturalGroup
p115
(dp116
g8
I0
sg9
(lp117
sba(icultural_network
CulturalGroup
p118
(dp119
g8
I0
sg9
(lp120
sba(icultural_network
CulturalGroup
p121
(dp122
g8
I0
sg9
(lp123
sba(icultural_network
CulturalGroup
p124
(dp125
g8
I0
sg9
(lp126
sba(icultural_network
CulturalGroup
p127
(dp128
g8
I0
sg9
(lp129
sba(icultural_network
CulturalGroup
p130
(dp131
g8
I0
sg9
(lp132
sba(icultural_network
CulturalGroup
p133
(dp134
g8
I0
sg9
(lp135
sba(icultural_network
CulturalGroup
p136
(dp137
g8
I0
sg9
(lp138
sba(icultural_network
CulturalGroup
p139
(dp140
g8
I0
sg9
(lp141
sba(icultural_network
CulturalGroup
p142
(dp143
g8
I0
sg9
(lp144
sba(icultural_network
CulturalGroup
p145
(dp146
g8
I0
sg9
(lp147
sba(icultural_network
CulturalGroup
p148
(dp149
g8
I0
sg9
(lp150
sba(icultural_network
CulturalGroup
p151
(dp152
g8
I0
sg9
(lp153
sba(icultural_network
CulturalGroup
p154
(dp155
g8
I0
sg9
(lp156
sba(icultural_network
CulturalGroup
p157
(dp158
g8
I0
sg9
(lp159
sba(icultural_network
CulturalGroup
p160
(dp161
g8
I0
sg9
(lp162
sba(icultural_network
CulturalGroup
p163
(dp164
g8
I0
sg9
(lp165
sba(icultural_network
CulturalGroup
p166
(dp167
g8
I0
sg9
(lp168
sba(icultural_network
CulturalGroup
p169
(dp170
g8
I0
sg9
(lp171
sba(icultural_network
CulturalGroup
p172
(dp173
g8
I0
sg9
(lp174
sba(icultural_network
CulturalGroup
p175
(dp176
g8
I0
sg9
(lp177
sba(icultural_network
CulturalGroup
p178
(dp179
g8
I0
sg9
(lp180
sba(icultural_network
CulturalGroup
p181
(dp182
g8
I0
sg9
(lp183
sba(icultural_network
CulturalGroup
p184
(dp185
g8
I0
sg9
(lp186
sba(icultural_network
CulturalGroup
p187
(dp188
g8
I0
sg9
(lp189
sba(icultural_network
CulturalGroup
p190
(dp191
g8
I0
sg9
(lp192
sba(icultural_network
CulturalGroup
p193
(dp194
g8
I0
sg9
(lp195
sba(icultural_network
CulturalGroup
p196
(dp197
g8
I0
sg9
(lp198
sba(icultural_network
CulturalGroup
p199
(dp200
g8
I0
sg9
(lp201
sba(icultural_network
CulturalGroup
p202
(dp203
g8
I0
sg9
(lp204
sba(icultural_network
CulturalGroup
p205
(dp206
g8
I0
sg9
(lp207
sba(icultural_network
CulturalGroup
p208
(dp209
g8
I0
sg9
(lp210
sba(icultural_network
CulturalGroup
p211
(dp212
g8
I0
sg9
(lp213
sba(icultural_network
CulturalGroup
p214
(dp215
g8
I0
sg9
(lp216
sba(icultural_network
CulturalGroup
p217
(dp218
g8
I0
sg9
(lp219
sba(icultural_network
CulturalGroup
p220
(dp221
g8
I0
sg9
(lp222
sba(icultural_network
CulturalGroup
p223
(dp224
g8
I0
sg9
(lp225
sba(icultural_network
CulturalGroup
p226
(dp227
g8
I0
sg9
(lp228
sba(icultural_network
CulturalGroup
p229
(dp230
g8
I0
sg9
(lp231
sba(icultural_network
CulturalGroup
p232
(dp233
g8
I0
sg9
(lp234
sba(icultural_network
CulturalGroup
p235
(dp236
g8
I0
sg9
(lp237
sba(icultural_network
CulturalGroup
p238
(dp239
g8
I0
sg9
(lp240
sba(icultural_network
CulturalGroup
p241
(dp242
g8
I0
sg9
(lp243
sba(icultural_network
CulturalGroup
p244
(dp245
g8
I0
sg9
(lp246
sba(icultural_network
CulturalGroup
p247
(dp248
g8
I0
sg9
(lp249
sba(icultural_network
CulturalGroup
p250
(dp251
g8
I0
sg9
(lp252
sba(icultural_network
CulturalGroup
p253
(dp254
g8
I0
sg9
(lp255
sba(icultural_network
CulturalGroup
p256
(dp257
g8
I0
sg9
(lp258
sba(icultural_network
CulturalGroup
p259
(dp260
g8
I0
sg9
(lp261
sba(icultural_network
CulturalGroup
p262
(dp263
g8
I0
sg9
(lp264
sba(icultural_network
CulturalGroup
p265
(dp266
g8
I0
sg9
(lp267
sba(icultural_network
CulturalGroup
p268
(dp269
g8
I0
sg9
(lp270
sba(icultural_network
CulturalGroup
p271
(dp272
g8
I0
sg9
(lp273
sba(icultural_network
CulturalGroup
p274
(dp275
g8
I0
sg9
(lp276
sba(icultural_network
CulturalGroup
p277
(dp278
g8
I0
sg9
(lp279
sba(icultural_network
CulturalGroup
p280
(dp281
g8
I0
sg9
(lp282
sba(icultural_network
CulturalGroup
p283
(dp284
g8
I0
sg9
(lp285
sba(icultural_network
CulturalGroup
p286
(dp287
g8
I0
sg9
(lp288
sba(icultural_network
CulturalGroup
p289
(dp290
g8
I0
sg9
(lp291
sba(icultural_network
CulturalGroup
p292
(dp293
g8
I0
sg9
(lp294
sba(icultural_network
CulturalGroup
p295
(dp296
g8
I0
sg9
(lp297
sba(icultural_network
CulturalGroup
p298
(dp299
g8
I0
sg9
(lp300
sba(icultural_network
CulturalGroup
p301
(dp302
g8
I0
sg9
(lp303
sba(icultural_network
CulturalGroup
p304
(dp305
g8
I0
sg9
(lp306
sba(icultural_network
CulturalGroup
p307
(dp308
g8
I0
sg9
(lp309
sba(icultural_network
CulturalGroup
p310
(dp311
g8
I0
sg9
(lp312
sba(icultural_network
CulturalGroup
p313
(dp314
g8
I0
sg9
(lp315
sba(icultural_network
CulturalGroup
p316
(dp317
g8
I0
sg9
(lp318
sbasS'_recognized_indexes'
p319
(lp320
sb.