(icultural_network
CulturalNetwork
p0
(dp1
S'_clack'
p2
I00
sS'_index_ready_to_learn'
p3
I4
sS'group_list'
p4
(lp5
(icultural_network
CulturalGroup
p6
(dp7
S'_group'
p8
(lp9
(icultural_network
CulturalNeuron
p10
(dp11
S'_knowledge'
p12
I4
sS'_has_knowledge'
p13
I01
sba(icultural_network
CulturalNeuron
p14
(dp15
g12
I7
sg13
I01
sba(icultural_network
CulturalNeuron
p16
(dp17
g12
I5
sg13
I01
sba(icultural_network
CulturalNeuron
p18
(dp19
g12
I8
sg13
I01
sba(icultural_network
CulturalNeuron
p20
(dp21
g12
I6
sg13
I01
sbasS'_index_bip'
p22
I2
sba(icultural_network
CulturalGroup
p23
(dp24
g8
(lp25
(icultural_network
CulturalNeuron
p26
(dp27
g12
I4
sg13
I01
sba(icultural_network
CulturalNeuron
p28
(dp29
g12
I7
sg13
I01
sba(icultural_network
CulturalNeuron
p30
(dp31
g12
I4
sg13
I01
sba(icultural_network
CulturalNeuron
p32
(dp33
g12
I8
sg13
I01
sba(icultural_network
CulturalNeuron
p34
(dp35
g12
I5
sg13
I01
sbasg22
I2
sba(icultural_network
CulturalGroup
p36
(dp37
g8
(lp38
(icultural_network
CulturalNeuron
p39
(dp40
g12
I4
sg13
I01
sba(icultural_network
CulturalNeuron
p41
(dp42
g12
I7
sg13
I01
sba(icultural_network
CulturalNeuron
p43
(dp44
g12
I6
sg13
I01
sba(icultural_network
CulturalNeuron
p45
(dp46
g12
I8
sg13
I01
sba(icultural_network
CulturalNeuron
p47
(dp48
g12
I9
sg13
I01
sbasg22
I2
sba(icultural_network
CulturalGroup
p49
(dp50
g8
(lp51
(icultural_network
CulturalNeuron
p52
(dp53
g12
I4
sg13
I01
sba(icultural_network
CulturalNeuron
p54
(dp55
g12
I4
sg13
I01
sba(icultural_network
CulturalNeuron
p56
(dp57
g12
I8
sg13
I01
sbasg22
I0
sba(icultural_network
CulturalGroup
p58
(dp59
g8
(lp60
sg22
I0
sba(icultural_network
CulturalGroup
p61
(dp62
g8
(lp63
sg22
I0
sba(icultural_network
CulturalGroup
p64
(dp65
g8
(lp66
sg22
I0
sba(icultural_network
CulturalGroup
p67
(dp68
g8
(lp69
sg22
I0
sba(icultural_network
CulturalGroup
p70
(dp71
g8
(lp72
sg22
I0
sba(icultural_network
CulturalGroup
p73
(dp74
g8
(lp75
sg22
I0
sba(icultural_network
CulturalGroup
p76
(dp77
g8
(lp78
sg22
I0
sba(icultural_network
CulturalGroup
p79
(dp80
g8
(lp81
sg22
I0
sba(icultural_network
CulturalGroup
p82
(dp83
g8
(lp84
sg22
I0
sba(icultural_network
CulturalGroup
p85
(dp86
g8
(lp87
sg22
I0
sba(icultural_network
CulturalGroup
p88
(dp89
g8
(lp90
sg22
I0
sba(icultural_network
CulturalGroup
p91
(dp92
g8
(lp93
sg22
I0
sba(icultural_network
CulturalGroup
p94
(dp95
g8
(lp96
sg22
I0
sba(icultural_network
CulturalGroup
p97
(dp98
g8
(lp99
sg22
I0
sba(icultural_network
CulturalGroup
p100
(dp101
g8
(lp102
sg22
I0
sba(icultural_network
CulturalGroup
p103
(dp104
g8
(lp105
sg22
I0
sba(icultural_network
CulturalGroup
p106
(dp107
g8
(lp108
sg22
I0
sba(icultural_network
CulturalGroup
p109
(dp110
g8
(lp111
sg22
I0
sba(icultural_network
CulturalGroup
p112
(dp113
g8
(lp114
sg22
I0
sba(icultural_network
CulturalGroup
p115
(dp116
g8
(lp117
sg22
I0
sba(icultural_network
CulturalGroup
p118
(dp119
g8
(lp120
sg22
I0
sba(icultural_network
CulturalGroup
p121
(dp122
g8
(lp123
sg22
I0
sba(icultural_network
CulturalGroup
p124
(dp125
g8
(lp126
sg22
I0
sba(icultural_network
CulturalGroup
p127
(dp128
g8
(lp129
sg22
I0
sba(icultural_network
CulturalGroup
p130
(dp131
g8
(lp132
sg22
I0
sba(icultural_network
CulturalGroup
p133
(dp134
g8
(lp135
sg22
I0
sba(icultural_network
CulturalGroup
p136
(dp137
g8
(lp138
sg22
I0
sba(icultural_network
CulturalGroup
p139
(dp140
g8
(lp141
sg22
I0
sba(icultural_network
CulturalGroup
p142
(dp143
g8
(lp144
sg22
I0
sba(icultural_network
CulturalGroup
p145
(dp146
g8
(lp147
sg22
I0
sba(icultural_network
CulturalGroup
p148
(dp149
g8
(lp150
sg22
I0
sba(icultural_network
CulturalGroup
p151
(dp152
g8
(lp153
sg22
I0
sba(icultural_network
CulturalGroup
p154
(dp155
g8
(lp156
sg22
I0
sba(icultural_network
CulturalGroup
p157
(dp158
g8
(lp159
sg22
I0
sba(icultural_network
CulturalGroup
p160
(dp161
g8
(lp162
sg22
I0
sba(icultural_network
CulturalGroup
p163
(dp164
g8
(lp165
sg22
I0
sba(icultural_network
CulturalGroup
p166
(dp167
g8
(lp168
sg22
I0
sba(icultural_network
CulturalGroup
p169
(dp170
g8
(lp171
sg22
I0
sba(icultural_network
CulturalGroup
p172
(dp173
g8
(lp174
sg22
I0
sba(icultural_network
CulturalGroup
p175
(dp176
g8
(lp177
sg22
I0
sba(icultural_network
CulturalGroup
p178
(dp179
g8
(lp180
sg22
I0
sba(icultural_network
CulturalGroup
p181
(dp182
g8
(lp183
sg22
I0
sba(icultural_network
CulturalGroup
p184
(dp185
g8
(lp186
sg22
I0
sba(icultural_network
CulturalGroup
p187
(dp188
g8
(lp189
sg22
I0
sba(icultural_network
CulturalGroup
p190
(dp191
g8
(lp192
sg22
I0
sba(icultural_network
CulturalGroup
p193
(dp194
g8
(lp195
sg22
I0
sba(icultural_network
CulturalGroup
p196
(dp197
g8
(lp198
sg22
I0
sba(icultural_network
CulturalGroup
p199
(dp200
g8
(lp201
sg22
I0
sba(icultural_network
CulturalGroup
p202
(dp203
g8
(lp204
sg22
I0
sba(icultural_network
CulturalGroup
p205
(dp206
g8
(lp207
sg22
I0
sba(icultural_network
CulturalGroup
p208
(dp209
g8
(lp210
sg22
I0
sba(icultural_network
CulturalGroup
p211
(dp212
g8
(lp213
sg22
I0
sba(icultural_network
CulturalGroup
p214
(dp215
g8
(lp216
sg22
I0
sba(icultural_network
CulturalGroup
p217
(dp218
g8
(lp219
sg22
I0
sba(icultural_network
CulturalGroup
p220
(dp221
g8
(lp222
sg22
I0
sba(icultural_network
CulturalGroup
p223
(dp224
g8
(lp225
sg22
I0
sba(icultural_network
CulturalGroup
p226
(dp227
g8
(lp228
sg22
I0
sba(icultural_network
CulturalGroup
p229
(dp230
g8
(lp231
sg22
I0
sba(icultural_network
CulturalGroup
p232
(dp233
g8
(lp234
sg22
I0
sba(icultural_network
CulturalGroup
p235
(dp236
g8
(lp237
sg22
I0
sba(icultural_network
CulturalGroup
p238
(dp239
g8
(lp240
sg22
I0
sba(icultural_network
CulturalGroup
p241
(dp242
g8
(lp243
sg22
I0
sba(icultural_network
CulturalGroup
p244
(dp245
g8
(lp246
sg22
I0
sba(icultural_network
CulturalGroup
p247
(dp248
g8
(lp249
sg22
I0
sba(icultural_network
CulturalGroup
p250
(dp251
g8
(lp252
sg22
I0
sba(icultural_network
CulturalGroup
p253
(dp254
g8
(lp255
sg22
I0
sba(icultural_network
CulturalGroup
p256
(dp257
g8
(lp258
sg22
I0
sba(icultural_network
CulturalGroup
p259
(dp260
g8
(lp261
sg22
I0
sba(icultural_network
CulturalGroup
p262
(dp263
g8
(lp264
sg22
I0
sba(icultural_network
CulturalGroup
p265
(dp266
g8
(lp267
sg22
I0
sba(icultural_network
CulturalGroup
p268
(dp269
g8
(lp270
sg22
I0
sba(icultural_network
CulturalGroup
p271
(dp272
g8
(lp273
sg22
I0
sba(icultural_network
CulturalGroup
p274
(dp275
g8
(lp276
sg22
I0
sba(icultural_network
CulturalGroup
p277
(dp278
g8
(lp279
sg22
I0
sba(icultural_network
CulturalGroup
p280
(dp281
g8
(lp282
sg22
I0
sba(icultural_network
CulturalGroup
p283
(dp284
g8
(lp285
sg22
I0
sba(icultural_network
CulturalGroup
p286
(dp287
g8
(lp288
sg22
I0
sba(icultural_network
CulturalGroup
p289
(dp290
g8
(lp291
sg22
I0
sba(icultural_network
CulturalGroup
p292
(dp293
g8
(lp294
sg22
I0
sba(icultural_network
CulturalGroup
p295
(dp296
g8
(lp297
sg22
I0
sba(icultural_network
CulturalGroup
p298
(dp299
g8
(lp300
sg22
I0
sba(icultural_network
CulturalGroup
p301
(dp302
g8
(lp303
sg22
I0
sba(icultural_network
CulturalGroup
p304
(dp305
g8
(lp306
sg22
I0
sba(icultural_network
CulturalGroup
p307
(dp308
g8
(lp309
sg22
I0
sba(icultural_network
CulturalGroup
p310
(dp311
g8
(lp312
sg22
I0
sba(icultural_network
CulturalGroup
p313
(dp314
g8
(lp315
sg22
I0
sba(icultural_network
CulturalGroup
p316
(dp317
g8
(lp318
sg22
I0
sba(icultural_network
CulturalGroup
p319
(dp320
g8
(lp321
sg22
I0
sba(icultural_network
CulturalGroup
p322
(dp323
g8
(lp324
sg22
I0
sba(icultural_network
CulturalGroup
p325
(dp326
g8
(lp327
sg22
I0
sba(icultural_network
CulturalGroup
p328
(dp329
g8
(lp330
sg22
I0
sba(icultural_network
CulturalGroup
p331
(dp332
g8
(lp333
sg22
I0
sba(icultural_network
CulturalGroup
p334
(dp335
g8
(lp336
sg22
I0
sba(icultural_network
CulturalGroup
p337
(dp338
g8
(lp339
sg22
I0
sba(icultural_network
CulturalGroup
p340
(dp341
g8
(lp342
sg22
I0
sba(icultural_network
CulturalGroup
p343
(dp344
g8
(lp345
sg22
I0
sbasS'_recognized_indexes'
p346
(lp347
sb.