(iepisodic_memories
EpisodicMemoriesBlock
p0
(dp1
S'_clack'
p2
I00
sS'_index_ready_to_learn'
p3
I9
sS'group_list'
p4
(lp5
(icultural_network
CulturalGroup
p6
(dp7
S'_index_bip'
p8
I1
sS'group'
p9
(lp10
ccopy_reg
_reconstructor
p11
(ccultural_network
CulturalNeuron
p12
c__builtin__
object
p13
Ntp14
Rp15
(dp16
S'_knowledge'
p17
I0
sS'_has_knowledge'
p18
I01
sbag11
(g12
g13
Ntp19
Rp20
(dp21
g17
(iinternal_state
InternalState
p22
(dp23
S'culture'
p24
F0.25
sS'biology'
p25
F1.0
sS'feelings'
p26
F0.25
sbsg18
I01
sbasba(icultural_network
CulturalGroup
p27
(dp28
g8
I1
sg9
(lp29
g11
(g12
g13
Ntp30
Rp31
(dp32
g17
I1
sg18
I01
sbag11
(g12
g13
Ntp33
Rp34
(dp35
g17
(iinternal_state
InternalState
p36
(dp37
g24
F1.0
sg25
F0.22660098522167488
sg26
F0.25
sbsg18
I01
sbasba(icultural_network
CulturalGroup
p38
(dp39
g8
I1
sg9
(lp40
g11
(g12
g13
Ntp41
Rp42
(dp43
g17
I2
sg18
I01
sbag11
(g12
g13
Ntp44
Rp45
(dp46
g17
(iinternal_state
InternalState
p47
(dp48
g24
F0.2315270935960591
sg25
F0.22660098522167488
sg26
F1.0
sbsg18
I01
sbasba(icultural_network
CulturalGroup
p49
(dp50
g8
I1
sg9
(lp51
g11
(g12
g13
Ntp52
Rp53
(dp54
g17
I0
sg18
I01
sbag11
(g12
g13
Ntp55
Rp56
(dp57
g17
I1
sg18
I01
sbag11
(g12
g13
Ntp58
Rp59
(dp60
g17
(iinternal_state
BiologyCultureFeelings
p61
(dp62
g24
I1
sg25
F0.5
sg26
I1
sbsg18
I01
sbasba(icultural_network
CulturalGroup
p63
(dp64
g8
I1
sg9
(lp65
g11
(g12
g13
Ntp66
Rp67
(dp68
g17
I3
sg18
I01
sbag11
(g12
g13
Ntp69
Rp70
(dp71
g17
(iinternal_state
InternalState
p72
(dp73
g24
F0.5024630541871922
sg25
F1.0
sg26
F0.9704433497536946
sbsg18
I01
sbasba(icultural_network
CulturalGroup
p74
(dp75
g8
I1
sg9
(lp76
g11
(g12
g13
Ntp77
Rp78
(dp79
g17
I4
sg18
I01
sbag11
(g12
g13
Ntp80
Rp81
(dp82
g17
(iinternal_state
InternalState
p83
(dp84
g24
F1.0
sg25
F0.23645320197044334
sg26
F1.0
sbsg18
I01
sbasba(icultural_network
CulturalGroup
p85
(dp86
g8
I1
sg9
(lp87
g11
(g12
g13
Ntp88
Rp89
(dp90
g17
I5
sg18
I01
sbag11
(g12
g13
Ntp91
Rp92
(dp93
g17
(iinternal_state
InternalState
p94
(dp95
g24
F0.25
sg25
F1.0
sg26
F0.25
sbsg18
I01
sbasba(icultural_network
CulturalGroup
p96
(dp97
g8
I1
sg9
(lp98
g11
(g12
g13
Ntp99
Rp100
(dp101
g17
I6
sg18
I01
sbag11
(g12
g13
Ntp102
Rp103
(dp104
g17
(iinternal_state
InternalState
p105
(dp106
g24
F1.0
sg25
F0.17733990147783252
sg26
F1.0
sbsg18
I01
sbasba(icultural_network
CulturalGroup
p107
(dp108
g8
I0
sg9
(lp109
g11
(g12
g13
Ntp110
Rp111
(dp112
g17
I7
sg18
I01
sbag11
(g12
g13
Ntp113
Rp114
(dp115
g17
(iinternal_state
InternalState
p116
(dp117
g24
F0.12807881773399016
sg25
F0.15270935960591125
sg26
F1.0
sbsg18
I01
sbasba(icultural_network
CulturalGroup
p118
(dp119
g8
I0
sg9
(lp120
sba(icultural_network
CulturalGroup
p121
(dp122
g8
I0
sg9
(lp123
sba(icultural_network
CulturalGroup
p124
(dp125
g8
I0
sg9
(lp126
sba(icultural_network
CulturalGroup
p127
(dp128
g8
I0
sg9
(lp129
sba(icultural_network
CulturalGroup
p130
(dp131
g8
I0
sg9
(lp132
sba(icultural_network
CulturalGroup
p133
(dp134
g8
I0
sg9
(lp135
sba(icultural_network
CulturalGroup
p136
(dp137
g8
I0
sg9
(lp138
sbasS'_recognized_indexes'
p139
(lp140
sb.