(igeometric_neural_block
GeometricNeuralBlock
p0
(dp1
S'_operation'
p2
S'COUNT'
p3
sS'_addition_structure'
p4
(igeometric_neural_block
AdditionStructure
p5
(dp6
S'index'
p7
I0
sS'neurons'
p8
(lp9
(igeometric_neural_block
Neuron
p10
(dp11
S'_knowledge'
p12
NsS'_has_knowledge'
p13
I00
sba(igeometric_neural_block
Neuron
p14
(dp15
g12
Nsg13
I00
sba(igeometric_neural_block
Neuron
p16
(dp17
g12
Nsg13
I00
sba(igeometric_neural_block
Neuron
p18
(dp19
g12
Nsg13
I00
sba(igeometric_neural_block
Neuron
p20
(dp21
g12
Nsg13
I00
sba(igeometric_neural_block
Neuron
p22
(dp23
g12
Nsg13
I00
sba(igeometric_neural_block
Neuron
p24
(dp25
g12
Nsg13
I00
sba(igeometric_neural_block
Neuron
p26
(dp27
g12
Nsg13
I00
sba(igeometric_neural_block
Neuron
p28
(dp29
g12
Nsg13
I00
sba(igeometric_neural_block
Neuron
p30
(dp31
g12
Nsg13
I00
sbasS'carry_over'
p32
I00
sbsS'_op2_queue'
p33
(lp34
sS'addition_result'
p35
(lp36
sS'_zero'
p37
I9
sS'_op1_queue'
p38
(lp39
I8
aI8
aI8
aI8
aI8
aI8
aI8
aI8
aI8
asS'_operator'
p40
NsS'_add_operator'
p41
I13
sS'_order_structure'
p42
(igeometric_neural_block
QuantityOrderNetwork
p43
(dp44
S'group_list'
p45
(lp46
(igeometric_neural_block
QuantityOrderGroup
p47
(dp48
S'_order_neuron'
p49
(igeometric_neural_block
OrderNeuron
p50
(dp51
g12
I0
sg13
I01
sbsS'_quantity_neuron'
p52
(igeometric_neural_block
QuantityNeuron
p53
(dp54
g12
Nsg13
I00
sbsS'_has_order'
p55
I01
sba(igeometric_neural_block
QuantityOrderGroup
p56
(dp57
g49
(igeometric_neural_block
OrderNeuron
p58
(dp59
g12
I1
sg13
I01
sbsg52
(igeometric_neural_block
QuantityNeuron
p60
(dp61
g12
Nsg13
I00
sbsg55
I01
sba(igeometric_neural_block
QuantityOrderGroup
p62
(dp63
g49
(igeometric_neural_block
OrderNeuron
p64
(dp65
g12
I2
sg13
I01
sbsg52
(igeometric_neural_block
QuantityNeuron
p66
(dp67
g12
Nsg13
I00
sbsg55
I01
sba(igeometric_neural_block
QuantityOrderGroup
p68
(dp69
g49
(igeometric_neural_block
OrderNeuron
p70
(dp71
g12
I10
sg13
I01
sbsg52
(igeometric_neural_block
QuantityNeuron
p72
(dp73
g12
Nsg13
I00
sbsg55
I01
sba(igeometric_neural_block
QuantityOrderGroup
p74
(dp75
g49
(igeometric_neural_block
OrderNeuron
p76
(dp77
g12
I4
sg13
I01
sbsg52
(igeometric_neural_block
QuantityNeuron
p78
(dp79
g12
Nsg13
I00
sbsg55
I01
sba(igeometric_neural_block
QuantityOrderGroup
p80
(dp81
g49
(igeometric_neural_block
OrderNeuron
p82
(dp83
g12
I5
sg13
I01
sbsg52
(igeometric_neural_block
QuantityNeuron
p84
(dp85
g12
Nsg13
I00
sbsg55
I01
sba(igeometric_neural_block
QuantityOrderGroup
p86
(dp87
g49
(igeometric_neural_block
OrderNeuron
p88
(dp89
g12
I6
sg13
I01
sbsg52
(igeometric_neural_block
QuantityNeuron
p90
(dp91
g12
Nsg13
I00
sbsg55
I01
sba(igeometric_neural_block
QuantityOrderGroup
p92
(dp93
g49
(igeometric_neural_block
OrderNeuron
p94
(dp95
g12
I7
sg13
I01
sbsg52
(igeometric_neural_block
QuantityNeuron
p96
(dp97
g12
Nsg13
I00
sbsg55
I01
sba(igeometric_neural_block
QuantityOrderGroup
p98
(dp99
g49
(igeometric_neural_block
OrderNeuron
p100
(dp101
g12
I8
sg13
I01
sbsg52
(igeometric_neural_block
QuantityNeuron
p102
(dp103
g12
Nsg13
I00
sbsg55
I01
sbasS'_index'
p104
I9
sbsS'_equal_sign'
p105
I14
sb.