(irbf_network
RbfNetwork
p0
(dp1
S'_state'
p2
S'HIT'
p3
sS'neuron_list'
p4
(lp5
(irbf_neuron
RbfNeuron
p6
(dp7
S'_degraded'
p8
I00
sS'_hit'
p9
I00
sS'_has_knowledge'
p10
I01
sS'_distance'
p11
F138.0
sS'_knowledge'
p12
(irbf_knowledge
RbfKnowledge
p13
(dp14
S'_pattern'
p15
(lp16
I0
aI0
aI0
aI0
aI0
aI0
aI0
aI0
aI0
aI0
aI0
aI0
aI0
aI14
aI4
aI0
aI0
aI11
aI15
aI0
aI0
aI9
aI8
aI0
aI0
aI13
aI8
aI0
aI0
aI4
aI8
aI0
aI0
aI4
aI8
aI0
aI0
aI12
aI12
aI0
aI0
aI12
aI7
aI0
aI0
aI0
aI3
aI0
aI0
aI0
aI0
aI0
aI0
aI0
aI0
aI0
aI0
aI0
aI0
aI0
aI0
aI0
aI0
aI0
asS'_class'
p17
Va
p18
sS'_set'
p19
S'NoSet'
p20
sbsS'_radius'
p21
I10
sba(irbf_neuron
RbfNeuron
p22
(dp23
g8
I00
sg9
I00
sg10
I01
sg11
F173.0
sg12
(irbf_knowledge
RbfKnowledge
p24
(dp25
g15
(lp26
I0
aI0
aI0
aI0
aI0
aI0
aI0
aI0
aI0
aI0
aI0
aI0
aI0
aI0
aI15
aI7
aI0
aI8
aI1
aI3
aI0
aI8
aI0
aI3
aI0
aI8
aI0
aI3
aI0
aI8
aI8
aI3
aI0
aI8
aI9
aI3
aI0
aI0
aI15
aI1
aI0
aI0
aI8
aI1
aI0
aI0
aI12
aI1
aI0
aI0
aI12
aI0
aI0
aI0
aI12
aI0
aI0
aI0
aI12
aI0
aI0
aI0
aI12
aI0
asg17
Vb
p27
sg19
g20
sbsg21
I10
sba(irbf_neuron
RbfNeuron
p28
(dp29
g8
I00
sg9
I00
sg10
I01
sg11
F71.0
sg12
(irbf_knowledge
RbfKnowledge
p30
(dp31
g15
(lp32
I0
aI0
aI0
aI0
aI0
aI0
aI0
aI0
aI0
aI0
aI0
aI0
aI0
aI0
aI0
aI0
aI0
aI8
aI3
aI0
aI0
aI12
aI6
aI0
aI0
aI4
aI4
aI0
aI0
aI0
aI4
aI0
aI0
aI0
aI4
aI0
aI0
aI0
aI6
aI0
aI0
aI8
aI3
aI0
aI0
aI0
aI3
aI0
aI0
aI0
aI0
aI0
aI0
aI0
aI0
aI0
aI0
aI0
aI0
aI0
aI0
aI0
aI0
aI0
asg17
Vc
p33
sg19
S'NoSet'
p34
sbsg21
I10
sba(irbf_neuron
RbfNeuron
p35
(dp36
g8
I00
sg9
I00
sg10
I01
sg11
F83.0
sg12
(irbf_knowledge
RbfKnowledge
p37
(dp38
g15
(lp39
I0
aI0
aI0
aI0
aI0
aI0
aI0
aI0
aI0
aI12
aI3
aI0
aI0
aI6
aI6
aI0
aI0
aI2
aI0
aI0
aI0
aI2
aI0
aI0
aI0
aI2
aI0
aI0
aI0
aI14
aI3
aI0
aI0
aI0
aI2
aI0
aI0
aI0
aI2
aI0
aI0
aI0
aI6
aI0
aI0
aI8
aI3
aI0
aI0
aI0
aI0
aI0
aI0
aI0
aI0
aI0
aI0
aI0
aI0
aI0
aI0
aI0
aI0
aI0
asg17
Vs
p40
sg19
g34
sbsg21
I10
sba(irbf_neuron
RbfNeuron
p41
(dp42
g8
I00
sg9
I00
sg10
I01
sg11
F92.0
sg12
(irbf_knowledge
RbfKnowledge
p43
(dp44
g15
(lp45
I0
aI0
aI0
aI0
aI0
aI0
aI0
aI0
aI0
aI0
aI0
aI0
aI0
aI0
aI0
aI0
aI0
aI0
aI0
aI0
aI0
aI12
aI3
aI0
aI0
aI12
aI3
aI0
aI0
aI12
aI3
aI0
aI0
aI12
aI3
aI0
aI0
aI0
aI0
aI0
aI0
aI0
aI0
aI0
aI0
aI0
aI0
aI0
aI0
aI0
aI0
aI0
aI0
aI0
aI0
aI0
aI0
aI0
aI0
aI0
aI0
aI0
aI0
aI0
asg17
V1
p46
sg19
S'NoSet'
p47
sbsg21
I10
sba(irbf_neuron
RbfNeuron
p48
(dp49
g8
I00
sg9
I00
sg10
I01
sg11
F164.0
sg12
(irbf_knowledge
RbfKnowledge
p50
(dp51
g15
(lp52
I0
aI0
aI0
aI15
aI0
aI0
aI0
aI15
aI0
aI0
aI0
aI15
aI0
aI0
aI0
aI15
aI0
aI0
aI0
aI0
aI0
aI0
aI0
aI0
aI0
aI0
aI0
aI0
aI0
aI0
aI0
aI0
aI0
aI0
aI0
aI0
aI0
aI0
aI0
aI0
aI0
aI0
aI0
aI0
aI0
aI0
aI0
aI0
aI15
aI0
aI0
aI0
aI15
aI0
aI0
aI0
aI15
aI0
aI0
aI0
aI15
aI0
aI0
aI0
asg17
V2
p53
sg19
g47
sbsg21
I10
sba(irbf_neuron
RbfNeuron
p54
(dp55
g8
I00
sg9
I00
sg10
I01
sg11
F196.0
sg12
(irbf_knowledge
RbfKnowledge
p56
(dp57
g15
(lp58
I0
aI0
aI0
aI15
aI0
aI0
aI0
aI15
aI0
aI0
aI0
aI15
aI0
aI0
aI0
aI15
aI0
aI0
aI0
aI0
aI0
aI0
aI0
aI0
aI0
aI12
aI3
aI0
aI0
aI12
aI3
aI0
aI0
aI12
aI3
aI0
aI0
aI12
aI3
aI0
aI0
aI0
aI0
aI0
aI0
aI0
aI0
aI0
aI15
aI0
aI0
aI0
aI15
aI0
aI0
aI0
aI15
aI0
aI0
aI0
aI15
aI0
aI0
aI0
asg17
V3
p59
sg19
g47
sbsg21
I10
sba(irbf_neuron
RbfNeuron
p60
(dp61
g8
I00
sg9
I00
sg10
I01
sg11
F88.0
sg12
(irbf_knowledge
RbfKnowledge
p62
(dp63
g15
(lp64
I0
aI0
aI0
aI0
aI0
aI0
aI0
aI0
aI0
aI0
aI0
aI0
aI0
aI0
aI0
aI0
aI0
aI0
aI0
aI0
aI0
aI0
aI0
aI0
aI0
aI8
aI1
aI0
aI0
aI8
aI1
aI0
aI0
aI14
aI7
aI0
aI0
aI14
aI7
aI0
aI0
aI8
aI1
aI0
aI0
aI8
aI1
aI0
aI0
aI0
aI0
aI0
aI0
aI0
aI0
aI0
aI0
aI0
aI0
aI0
aI0
aI0
aI0
aI0
asg17
V+
p65
sg19
g47
sbsg21
I10
sba(irbf_neuron
RbfNeuron
p66
(dp67
g8
I00
sg9
I00
sg10
I01
sg11
F78.0
sg12
(irbf_knowledge
RbfKnowledge
p68
(dp69
g15
(lp70
I0
aI0
aI0
aI0
aI0
aI0
aI0
aI0
aI0
aI0
aI0
aI0
aI0
aI0
aI0
aI0
aI0
aI0
aI0
aI0
aI0
aI0
aI0
aI0
aI0
aI12
aI3
aI0
aI0
aI12
aI3
aI0
aI0
aI0
aI0
aI0
aI0
aI12
aI3
aI0
aI0
aI12
aI3
aI0
aI0
aI0
aI0
aI0
aI0
aI0
aI0
aI0
aI0
aI0
aI0
aI0
aI0
aI0
aI0
aI0
aI0
aI0
aI0
aI0
asg17
V=
p71
sg19
g47
sbsg21
I10
sba(irbf_neuron
RbfNeuron
p72
(dp73
g8
I00
sg9
I00
sg10
I01
sg11
F284.0
sg12
(irbf_knowledge
RbfKnowledge
p74
(dp75
g15
(lp76
I15
aI0
aI0
aI15
aI15
aI0
aI0
aI15
aI15
aI0
aI0
aI15
aI15
aI0
aI0
aI15
aI0
aI0
aI0
aI0
aI0
aI0
aI0
aI0
aI0
aI0
aI0
aI0
aI0
aI0
aI0
aI0
aI0
aI0
aI0
aI0
aI0
aI0
aI0
aI0
aI0
aI0
aI0
aI0
aI0
aI0
aI0
aI0
aI15
aI0
aI0
aI15
aI15
aI0
aI0
aI15
aI15
aI0
aI0
aI15
aI15
aI0
aI0
aI15
asg17
Vcuatro
p77
sg19
S'NoSet'
p78
sbsg21
I10
sba(irbf_neuron
RbfNeuron
p79
(dp80
g8
I00
sg9
I00
sg10
I01
sg11
F84.0
sg12
(irbf_knowledge
RbfKnowledge
p81
(dp82
g15
(lp83
I0
aI0
aI0
aI0
aI0
aI0
aI0
aI0
aI0
aI0
aI0
aI0
aI0
aI0
aI8
aI0
aI0
aI0
aI8
aI0
aI0
aI0
aI0
aI2
aI0
aI0
aI4
aI0
aI0
aI8
aI15
aI0
aI0
aI8
aI4
aI0
aI0
aI8
aI4
aI0
aI0
aI8
aI6
aI0
aI0
aI8
aI3
aI0
aI0
aI0
aI0
aI0
aI0
aI0
aI0
aI0
aI0
aI0
aI0
aI0
aI0
aI0
aI0
aI0
asg17
Vp
p84
sg19
g78
sbsg21
I10
sba(irbf_neuron
RbfNeuron
p85
(dp86
g8
I00
sg9
I00
sg10
I01
sg11
F66.0
sg12
(irbf_knowledge
RbfKnowledge
p87
(dp88
g15
(lp89
I0
aI0
aI0
aI0
aI0
aI0
aI0
aI0
aI0
aI0
aI0
aI0
aI0
aI0
aI4
aI0
aI0
aI0
aI15
aI0
aI0
aI0
aI1
aI0
aI0
aI0
aI1
aI0
aI0
aI12
aI1
aI0
aI0
aI0
aI3
aI0
aI0
aI2
aI6
aI0
aI0
aI8
aI0
aI0
aI0
aI4
aI4
aI0
aI0
aI0
aI1
aI0
aI0
aI0
aI0
aI0
aI0
aI0
aI0
aI0
aI0
aI0
aI0
aI0
asg17
V
p90
sg19
g78
sbsg21
I10
sba(irbf_neuron
RbfNeuron
p91
(dp92
g8
I00
sg9
I00
sg10
I01
sg11
F108.0
sg12
(irbf_knowledge
RbfKnowledge
p93
(dp94
g15
(lp95
I0
aI0
aI0
aI0
aI0
aI0
aI0
aI0
aI0
aI0
aI0
aI0
aI0
aI0
aI0
aI0
aI0
aI0
aI0
aI0
aI0
aI0
aI0
aI0
aI0
aI15
aI7
aI0
aI0
aI9
aI13
aI0
aI0
aI9
aI8
aI0
aI0
aI8
aI12
aI0
aI0
aI8
aI6
aI0
aI0
aI8
aI3
aI0
aI0
aI0
aI0
aI0
aI0
aI0
aI0
aI0
aI0
aI0
aI0
aI0
aI0
aI0
aI0
aI0
asg17
Va
p96
sg19
S'NoSet'
p97
sbsg21
I10
sba(irbf_neuron
RbfNeuron
p98
(dp99
g8
I00
sg9
I00
sg10
I01
sg11
F123.0
sg12
(irbf_knowledge
RbfKnowledge
p100
(dp101
g15
(lp102
I0
aI0
aI0
aI0
aI0
aI0
aI0
aI0
aI0
aI0
aI0
aI0
aI0
aI0
aI0
aI0
aI0
aI12
aI0
aI0
aI0
aI11
aI7
aI0
aI8
aI9
aI4
aI0
aI8
aI8
aI4
aI0
aI8
aI9
aI4
aI0
aI0
aI8
aI6
aI0
aI0
aI8
aI3
aI0
aI0
aI0
aI0
aI0
aI0
aI0
aI0
aI0
aI0
aI0
aI0
aI0
aI0
aI0
aI0
aI0
aI0
aI0
aI0
aI0
asg17
Va
p103
sg19
g97
sbsg21
I10
sba(irbf_neuron
RbfNeuron
p104
(dp105
g8
I00
sg9
I00
sg10
I01
sg11
F119.0
sg12
(irbf_knowledge
RbfKnowledge
p106
(dp107
g15
(lp108
I0
aI0
aI0
aI0
aI0
aI0
aI0
aI0
aI0
aI11
aI3
aI0
aI0
aI14
aI7
aI0
aI0
aI12
aI6
aI0
aI0
aI12
aI6
aI0
aI0
aI4
aI6
aI0
aI0
aI4
aI6
aI0
aI0
aI12
aI3
aI0
aI0
aI12
aI1
aI0
aI0
aI0
aI0
aI0
aI0
aI0
aI0
aI0
aI0
aI0
aI0
aI0
aI0
aI0
aI0
aI0
aI0
aI0
aI0
aI0
aI0
aI0
aI0
aI0
asg17
Va
p109
sg19
g97
sbsg21
I10
sba(irbf_neuron
RbfNeuron
p110
(dp111
g8
I00
sg9
I00
sg10
I01
sg11
F67.0
sg12
(irbf_knowledge
RbfKnowledge
p112
(dp113
g15
(lp114
I0
aI0
aI0
aI0
aI0
aI0
aI0
aI0
aI0
aI0
aI0
aI0
aI0
aI0
aI0
aI0
aI0
aI0
aI0
aI0
aI0
aI14
aI3
aI0
aI0
aI2
aI2
aI0
aI0
aI2
aI3
aI0
aI0
aI8
aI3
aI0
aI0
aI8
aI2
aI0
aI0
aI8
aI3
aI0
aI0
aI0
aI1
aI0
aI0
aI0
aI0
aI0
aI0
aI0
aI0
aI0
aI0
aI0
aI0
aI0
aI0
aI0
aI0
aI0
asg17
Ve
p115
sg19
S'NoSet'
p116
sbsg21
I10
sba(irbf_neuron
RbfNeuron
p117
(dp118
g8
I00
sg9
I00
sg10
I01
sg11
F98.0
sg12
(irbf_knowledge
RbfKnowledge
p119
(dp120
g15
(lp121
I0
aI0
aI0
aI0
aI0
aI0
aI0
aI0
aI0
aI0
aI0
aI0
aI0
aI0
aI0
aI0
aI0
aI14
aI0
aI0
aI0
aI10
aI1
aI0
aI0
aI0
aI1
aI0
aI0
aI12
aI1
aI0
aI0
aI12
aI1
aI0
aI0
aI12
aI0
aI0
aI0
aI0
aI0
aI0
aI0
aI0
aI0
aI0
aI0
aI0
aI0
aI0
aI0
aI0
aI0
aI0
aI0
aI0
aI0
aI0
aI0
aI0
aI0
aI0
asg17
Ve
p122
sg19
S'NoSet'
p123
sbsg21
I10
sba(irbf_neuron
RbfNeuron
p124
(dp125
g8
I00
sg9
I00
sg10
I01
sg11
F94.0
sg12
(irbf_knowledge
RbfKnowledge
p126
(dp127
g15
(lp128
I0
aI0
aI0
aI0
aI0
aI0
aI0
aI0
aI0
aI0
aI0
aI0
aI0
aI0
aI7
aI0
aI0
aI8
aI13
aI0
aI0
aI8
aI8
aI1
aI0
aI0
aI14
aI1
aI0
aI0
aI10
aI0
aI0
aI0
aI14
aI0
aI0
aI0
aI6
aI0
aI0
aI0
aI0
aI0
aI0
aI0
aI0
aI0
aI0
aI0
aI0
aI0
aI0
aI0
aI0
aI0
aI0
aI0
aI0
aI0
aI0
aI0
aI0
aI0
asg17
Ve
p129
sg19
g123
sbsg21
I10
sba(irbf_neuron
RbfNeuron
p130
(dp131
g8
I00
sg9
I00
sg10
I01
sg11
F79.0
sg12
(irbf_knowledge
RbfKnowledge
p132
(dp133
g15
(lp134
I0
aI0
aI0
aI0
aI0
aI0
aI0
aI0
aI0
aI0
aI0
aI0
aI0
aI0
aI0
aI0
aI0
aI0
aI0
aI0
aI0
aI0
aI0
aI0
aI0
aI8
aI7
aI0
aI0
aI8
aI4
aI0
aI0
aI8
aI0
aI0
aI0
aI8
aI3
aI0
aI0
aI0
aI2
aI0
aI0
aI8
aI3
aI0
aI0
aI0
aI0
aI0
aI0
aI0
aI0
aI0
aI0
aI0
aI0
aI0
aI0
aI0
aI0
aI0
asg17
V5
p135
sg19
S'NoSet'
p136
sbsg21
I10
sba(irbf_neuron
RbfNeuron
p137
(dp138
g8
I00
sg9
I00
sg10
I01
sg11
F92.0
sg12
(irbf_knowledge
RbfKnowledge
p139
(dp140
g15
(lp141
I0
aI0
aI0
aI0
aI0
aI0
aI0
aI0
aI0
aI0
aI0
aI0
aI0
aI0
aI0
aI0
aI0
aI0
aI0
aI0
aI0
aI8
aI0
aI0
aI8
aI15
aI1
aI0
aI0
aI6
aI1
aI0
aI0
aI2
aI1
aI0
aI0
aI2
aI1
aI0
aI0
aI10
aI1
aI0
aI0
aI6
aI0
aI0
aI0
aI0
aI0
aI0
aI0
aI0
aI0
aI0
aI0
aI0
aI0
aI0
aI0
aI0
aI0
aI0
asg17
Va
p142
sg19
S'NoSet'
p143
sbsg21
I10
sba(irbf_neuron
RbfNeuron
p144
(dp145
g8
I00
sg9
I00
sg10
I01
sg11
F84.0
sg12
(irbf_knowledge
RbfKnowledge
p146
(dp147
g15
(lp148
I0
aI0
aI0
aI0
aI0
aI0
aI0
aI0
aI0
aI0
aI0
aI0
aI0
aI0
aI0
aI0
aI0
aI0
aI0
aI0
aI0
aI0
aI0
aI0
aI0
aI0
aI0
aI0
aI0
aI0
aI0
aI0
aI0
aI7
aI0
aI0
aI0
aI12
aI3
aI0
aI0
aI4
aI2
aI0
aI0
aI4
aI2
aI0
aI0
aI4
aI3
aI0
aI0
aI12
aI1
aI0
aI0
aI12
aI0
aI0
aI0
aI0
aI0
aI0
asg17
Va
p149
sg19
g143
sbsg21
I10
sba(irbf_neuron
RbfNeuron
p150
(dp151
g8
I00
sg9
I00
sg10
I01
sg11
F50.0
sg12
(irbf_knowledge
RbfKnowledge
p152
(dp153
g15
(lp154
I0
aI0
aI0
aI0
aI0
aI0
aI0
aI0
aI0
aI0
aI0
aI0
aI0
aI0
aI0
aI0
aI0
aI0
aI0
aI0
aI0
aI0
aI0
aI0
aI0
aI0
aI0
aI0
aI0
aI0
aI0
aI0
aI0
aI0
aI0
aI0
aI0
aI0
aI0
aI0
aI0
aI0
aI0
aI0
aI0
aI0
aI0
aI0
aI0
aI0
aI0
aI0
aI0
aI0
aI0
aI0
aI0
aI0
aI0
aI0
aI0
aI0
aI0
aI0
asg17
g90
sg19
S'NoSet'
p155
sbsg21
I10
sba(irbf_neuron
RbfNeuron
p156
(dp157
g8
I00
sg9
I00
sg10
I01
sg11
F82.0
sg12
(irbf_knowledge
RbfKnowledge
p158
(dp159
g15
(lp160
I0
aI0
aI0
aI0
aI0
aI0
aI0
aI0
aI0
aI0
aI0
aI0
aI0
aI0
aI0
aI0
aI0
aI0
aI0
aI0
aI0
aI0
aI0
aI0
aI0
aI6
aI0
aI0
aI0
aI12
aI0
aI0
aI0
aI8
aI7
aI0
aI0
aI8
aI5
aI0
aI0
aI8
aI5
aI0
aI0
aI8
aI7
aI0
aI0
aI0
aI2
aI0
aI0
aI0
aI0
aI0
aI0
aI0
aI0
aI0
aI0
aI0
aI0
aI0
asg17
Va
p161
sg19
S'NoSet'
p162
sbsg21
I10
sba(irbf_neuron
RbfNeuron
p163
(dp164
g8
I00
sg9
I01
sg10
I01
sg11
F0.0
sg12
(irbf_knowledge
RbfKnowledge
p165
(dp166
g15
(lp167
I0
aI0
aI0
aI0
aI0
aI0
aI0
aI0
aI0
aI0
aI8
aI1
aI0
aI0
aI6
aI2
aI0
aI0
aI2
aI0
aI0
aI0
aI2
aI0
aI0
aI0
aI2
aI0
aI0
aI0
aI2
aI0
aI0
aI0
aI6
aI3
aI0
aI4
aI3
aI0
aI0
aI3
aI2
aI0
aI0
aI0
aI2
aI0
aI0
aI0
aI2
aI0
aI0
aI0
aI0
aI0
aI0
aI0
aI0
aI0
aI0
aI0
aI0
aI0
asg17
Vplud
p168
sg19
S'NoSet'
p169
sbsg21
I10
sba(irbf_neuron
RbfNeuron
p170
(dp171
g8
I00
sg21
I24
sg10
I00
sba(irbf_neuron
RbfNeuron
p172
(dp173
g8
I00
sg21
I24
sg10
I00
sba(irbf_neuron
RbfNeuron
p174
(dp175
g8
I00
sg21
I24
sg10
I00
sba(irbf_neuron
RbfNeuron
p176
(dp177
g8
I00
sg21
I24
sg10
I00
sba(irbf_neuron
RbfNeuron
p178
(dp179
g8
I00
sg21
I24
sg10
I00
sba(irbf_neuron
RbfNeuron
p180
(dp181
g8
I00
sg21
I24
sg10
I00
sba(irbf_neuron
RbfNeuron
p182
(dp183
g8
I00
sg21
I24
sg10
I00
sba(irbf_neuron
RbfNeuron
p184
(dp185
g8
I00
sg21
I24
sg10
I00
sba(irbf_neuron
RbfNeuron
p186
(dp187
g8
I00
sg21
I24
sg10
I00
sba(irbf_neuron
RbfNeuron
p188
(dp189
g8
I00
sg21
I24
sg10
I00
sba(irbf_neuron
RbfNeuron
p190
(dp191
g8
I00
sg21
I24
sg10
I00
sba(irbf_neuron
RbfNeuron
p192
(dp193
g8
I00
sg21
I24
sg10
I00
sba(irbf_neuron
RbfNeuron
p194
(dp195
g8
I00
sg21
I24
sg10
I00
sba(irbf_neuron
RbfNeuron
p196
(dp197
g8
I00
sg21
I24
sg10
I00
sba(irbf_neuron
RbfNeuron
p198
(dp199
g8
I00
sg21
I24
sg10
I00
sba(irbf_neuron
RbfNeuron
p200
(dp201
g8
I00
sg21
I24
sg10
I00
sba(irbf_neuron
RbfNeuron
p202
(dp203
g8
I00
sg21
I24
sg10
I00
sba(irbf_neuron
RbfNeuron
p204
(dp205
g8
I00
sg21
I24
sg10
I00
sba(irbf_neuron
RbfNeuron
p206
(dp207
g8
I00
sg21
I24
sg10
I00
sba(irbf_neuron
RbfNeuron
p208
(dp209
g8
I00
sg21
I24
sg10
I00
sba(irbf_neuron
RbfNeuron
p210
(dp211
g8
I00
sg21
I24
sg10
I00
sba(irbf_neuron
RbfNeuron
p212
(dp213
g8
I00
sg21
I24
sg10
I00
sba(irbf_neuron
RbfNeuron
p214
(dp215
g8
I00
sg21
I24
sg10
I00
sba(irbf_neuron
RbfNeuron
p216
(dp217
g8
I00
sg21
I24
sg10
I00
sba(irbf_neuron
RbfNeuron
p218
(dp219
g8
I00
sg21
I24
sg10
I00
sba(irbf_neuron
RbfNeuron
p220
(dp221
g8
I00
sg21
I24
sg10
I00
sba(irbf_neuron
RbfNeuron
p222
(dp223
g8
I00
sg21
I24
sg10
I00
sba(irbf_neuron
RbfNeuron
p224
(dp225
g8
I00
sg21
I24
sg10
I00
sba(irbf_neuron
RbfNeuron
p226
(dp227
g8
I00
sg21
I24
sg10
I00
sba(irbf_neuron
RbfNeuron
p228
(dp229
g8
I00
sg21
I24
sg10
I00
sba(irbf_neuron
RbfNeuron
p230
(dp231
g8
I00
sg21
I24
sg10
I00
sba(irbf_neuron
RbfNeuron
p232
(dp233
g8
I00
sg21
I24
sg10
I00
sba(irbf_neuron
RbfNeuron
p234
(dp235
g8
I00
sg21
I24
sg10
I00
sba(irbf_neuron
RbfNeuron
p236
(dp237
g8
I00
sg21
I24
sg10
I00
sba(irbf_neuron
RbfNeuron
p238
(dp239
g8
I00
sg21
I24
sg10
I00
sba(irbf_neuron
RbfNeuron
p240
(dp241
g8
I00
sg21
I24
sg10
I00
sba(irbf_neuron
RbfNeuron
p242
(dp243
g8
I00
sg21
I24
sg10
I00
sba(irbf_neuron
RbfNeuron
p244
(dp245
g8
I00
sg21
I24
sg10
I00
sba(irbf_neuron
RbfNeuron
p246
(dp247
g8
I00
sg21
I24
sg10
I00
sba(irbf_neuron
RbfNeuron
p248
(dp249
g8
I00
sg21
I24
sg10
I00
sba(irbf_neuron
RbfNeuron
p250
(dp251
g8
I00
sg21
I24
sg10
I00
sba(irbf_neuron
RbfNeuron
p252
(dp253
g8
I00
sg21
I24
sg10
I00
sba(irbf_neuron
RbfNeuron
p254
(dp255
g8
I00
sg21
I24
sg10
I00
sba(irbf_neuron
RbfNeuron
p256
(dp257
g8
I00
sg21
I24
sg10
I00
sba(irbf_neuron
RbfNeuron
p258
(dp259
g8
I00
sg21
I24
sg10
I00
sba(irbf_neuron
RbfNeuron
p260
(dp261
g8
I00
sg21
I24
sg10
I00
sba(irbf_neuron
RbfNeuron
p262
(dp263
g8
I00
sg21
I24
sg10
I00
sba(irbf_neuron
RbfNeuron
p264
(dp265
g8
I00
sg21
I24
sg10
I00
sba(irbf_neuron
RbfNeuron
p266
(dp267
g8
I00
sg21
I24
sg10
I00
sba(irbf_neuron
RbfNeuron
p268
(dp269
g8
I00
sg21
I24
sg10
I00
sba(irbf_neuron
RbfNeuron
p270
(dp271
g8
I00
sg21
I24
sg10
I00
sba(irbf_neuron
RbfNeuron
p272
(dp273
g8
I00
sg21
I24
sg10
I00
sba(irbf_neuron
RbfNeuron
p274
(dp275
g8
I00
sg21
I24
sg10
I00
sba(irbf_neuron
RbfNeuron
p276
(dp277
g8
I00
sg21
I24
sg10
I00
sba(irbf_neuron
RbfNeuron
p278
(dp279
g8
I00
sg21
I24
sg10
I00
sba(irbf_neuron
RbfNeuron
p280
(dp281
g8
I00
sg21
I24
sg10
I00
sba(irbf_neuron
RbfNeuron
p282
(dp283
g8
I00
sg21
I24
sg10
I00
sba(irbf_neuron
RbfNeuron
p284
(dp285
g8
I00
sg21
I24
sg10
I00
sba(irbf_neuron
RbfNeuron
p286
(dp287
g8
I00
sg21
I24
sg10
I00
sba(irbf_neuron
RbfNeuron
p288
(dp289
g8
I00
sg21
I24
sg10
I00
sba(irbf_neuron
RbfNeuron
p290
(dp291
g8
I00
sg21
I24
sg10
I00
sba(irbf_neuron
RbfNeuron
p292
(dp293
g8
I00
sg21
I24
sg10
I00
sba(irbf_neuron
RbfNeuron
p294
(dp295
g8
I00
sg21
I24
sg10
I00
sba(irbf_neuron
RbfNeuron
p296
(dp297
g8
I00
sg21
I24
sg10
I00
sba(irbf_neuron
RbfNeuron
p298
(dp299
g8
I00
sg21
I24
sg10
I00
sba(irbf_neuron
RbfNeuron
p300
(dp301
g8
I00
sg21
I24
sg10
I00
sba(irbf_neuron
RbfNeuron
p302
(dp303
g8
I00
sg21
I24
sg10
I00
sba(irbf_neuron
RbfNeuron
p304
(dp305
g8
I00
sg21
I24
sg10
I00
sba(irbf_neuron
RbfNeuron
p306
(dp307
g8
I00
sg21
I24
sg10
I00
sba(irbf_neuron
RbfNeuron
p308
(dp309
g8
I00
sg21
I24
sg10
I00
sba(irbf_neuron
RbfNeuron
p310
(dp311
g8
I00
sg21
I24
sg10
I00
sba(irbf_neuron
RbfNeuron
p312
(dp313
g8
I00
sg21
I24
sg10
I00
sba(irbf_neuron
RbfNeuron
p314
(dp315
g8
I00
sg21
I24
sg10
I00
sba(irbf_neuron
RbfNeuron
p316
(dp317
g8
I00
sg21
I24
sg10
I00
sba(irbf_neuron
RbfNeuron
p318
(dp319
g8
I00
sg21
I24
sg10
I00
sba(irbf_neuron
RbfNeuron
p320
(dp321
g8
I00
sg21
I24
sg10
I00
sbasS'_index_recognize'
p322
(lp323
I23
asS'_index_ready_to_learn'
p324
I24
sS'_last_learned_id'
p325
I23
sb.