(irbf_network
RbfNetwork
p0
(dp1
S'_state'
p2
S'HIT'
p3
sS'neuron_list'
p4
(lp5
ccopy_reg
_reconstructor
p6
(crbf_network
RbfNeuron
p7
c__builtin__
object
p8
Ntp9
Rp10
(dp11
S'_degraded'
p12
I00
sS'_hit'
p13
I00
sS'_has_knowledge'
p14
I01
sS'_distance'
p15
F9.0
sS'_knowledge'
p16
(irbf_network
RbfKnowledge
p17
(dp18
S'_pattern'
p19
(lp20
I0
aI0
aI0
aI0
aI0
aI0
aI0
aI0
aI0
aI0
aI0
aI0
aI0
aI0
aI0
aI0
aI0
aI0
aI0
aI0
aI0
aI0
aI0
aI0
aI0
aI0
aI0
aI0
aI0
aI0
aI0
aI0
aI0
aI0
aI0
aI0
aI0
aI0
aI0
aI0
aI0
aI0
aI0
aI0
aI0
aI0
aI0
aI0
aI0
aI0
aI0
aI0
aI0
aI0
aI0
aI0
aI0
aI0
aI0
aI0
aI0
aI0
aI0
aI8
asS'_class'
p21
Vsquare
p22
sS'_set'
p23
S'NoSet'
p24
sbsS'_radius'
p25
F1.0
sbag6
(g7
g8
Ntp26
Rp27
(dp28
g12
I00
sg13
I00
sg14
I01
sg15
F10.0
sg16
(irbf_network
RbfKnowledge
p29
(dp30
g19
(lp31
I0
aI0
aI0
aI0
aI0
aI0
aI0
aI0
aI0
aI0
aI0
aI0
aI0
aI0
aI0
aI0
aI0
aI0
aI0
aI0
aI0
aI0
aI0
aI0
aI0
aI0
aI0
aI0
aI0
aI0
aI0
aI0
aI0
aI0
aI0
aI0
aI0
aI0
aI0
aI0
aI0
aI0
aI0
aI0
aI0
aI0
aI0
aI0
aI0
aI0
aI0
aI0
aI0
aI0
aI0
aI0
aI0
aI0
aI0
aI0
aI1
aI0
aI0
aI8
asg21
V2square
p32
sg23
g24
sbsg25
F1.0
sbag6
(g7
g8
Ntp33
Rp34
(dp35
g12
I00
sg13
I00
sg14
I01
sg15
F18.0
sg16
(irbf_network
RbfKnowledge
p36
(dp37
g19
(lp38
I0
aI0
aI0
aI8
aI0
aI0
aI0
aI0
aI0
aI0
aI0
aI0
aI0
aI0
aI0
aI0
aI0
aI0
aI0
aI0
aI0
aI0
aI0
aI0
aI0
aI0
aI0
aI0
aI0
aI0
aI0
aI0
aI0
aI0
aI0
aI0
aI0
aI0
aI0
aI0
aI0
aI0
aI0
aI0
aI0
aI0
aI0
aI0
aI0
aI0
aI0
aI0
aI0
aI0
aI0
aI0
aI0
aI0
aI0
aI0
aI1
aI0
aI0
aI8
asg21
V3square
p39
sg23
g24
sbsg25
I10
sbag6
(g7
g8
Ntp40
Rp41
(dp42
g12
I00
sg13
I00
sg14
I01
sg15
F4.0
sg16
(irbf_network
RbfKnowledge
p43
(dp44
g19
(lp45
I3
aI0
aI0
aI0
aI0
aI0
aI0
aI0
aI0
aI0
aI0
aI0
aI0
aI0
aI0
aI0
aI0
aI0
aI0
aI0
aI0
aI0
aI0
aI0
aI0
aI0
aI0
aI0
aI0
aI0
aI0
aI0
aI0
aI0
aI0
aI0
aI0
aI0
aI0
aI0
aI0
aI0
aI0
aI0
aI0
aI0
aI0
aI0
aI0
aI0
aI0
aI0
aI0
aI0
aI0
aI0
aI0
aI0
aI0
aI0
aI0
aI0
aI0
aI0
asg21
VManzana
p46
sg23
S'NoSet'
p47
sbsg25
F3.0
sbag6
(g7
g8
Ntp48
Rp49
(dp50
g12
I00
sg13
I00
sg14
I01
sg15
F7.0
sg16
(irbf_network
RbfKnowledge
p51
(dp52
g19
(lp53
I3
aI0
aI0
aI0
aI3
aI0
aI0
aI0
aI0
aI0
aI0
aI0
aI0
aI0
aI0
aI0
aI0
aI0
aI0
aI0
aI0
aI0
aI0
aI0
aI0
aI0
aI0
aI0
aI0
aI0
aI0
aI0
aI0
aI0
aI0
aI0
aI0
aI0
aI0
aI0
aI0
aI0
aI0
aI0
aI0
aI0
aI0
aI0
aI0
aI0
aI0
aI0
aI0
aI0
aI0
aI0
aI0
aI0
aI0
aI0
aI0
aI0
aI0
aI0
asg21
Vmusica
p54
sg23
g47
sbsg25
F3.0
sbag6
(g7
g8
Ntp55
Rp56
(dp57
g12
I00
sg13
I00
sg14
I01
sg15
F16.0
sg16
(irbf_network
RbfKnowledge
p58
(dp59
g19
(lp60
I3
aI0
aI0
aI12
aI0
aI0
aI0
aI0
aI0
aI0
aI0
aI0
aI0
aI0
aI0
aI0
aI0
aI0
aI0
aI0
aI0
aI0
aI0
aI0
aI0
aI0
aI0
aI0
aI0
aI0
aI0
aI0
aI0
aI0
aI0
aI0
aI0
aI0
aI0
aI0
aI0
aI0
aI0
aI0
aI0
aI0
aI0
aI0
aI0
aI0
aI0
aI0
aI0
aI0
aI0
aI0
aI0
aI0
aI0
aI0
aI0
aI0
aI0
aI0
asg21
Vmanzana
p61
sg23
S'NoSet'
p62
sbsg25
I10
sbag6
(g7
g8
Ntp63
Rp64
(dp65
g12
I00
sg13
I00
sg14
I01
sg15
F31.0
sg16
(irbf_network
RbfKnowledge
p66
(dp67
g19
(lp68
I3
aI0
aI0
aI12
aI0
aI0
aI0
aI0
aI0
aI0
aI0
aI0
aI0
aI0
aI0
aI0
aI0
aI0
aI0
aI0
aI0
aI0
aI0
aI0
aI0
aI0
aI0
aI0
aI0
aI0
aI0
aI0
aI0
aI0
aI0
aI0
aI0
aI0
aI0
aI0
aI0
aI0
aI0
aI0
aI0
aI0
aI0
aI0
aI0
aI0
aI0
aI0
aI0
aI0
aI0
aI0
aI0
aI0
aI0
aI0
aI3
aI0
aI0
aI12
asg21
Vmusica
p69
sg23
g62
sbsg25
I10
sbag6
(g7
g8
Ntp70
Rp71
(dp72
g12
I00
sg13
I00
sg14
I01
sg15
F9.0
sg16
(irbf_network
RbfKnowledge
p73
(dp74
g19
(lp75
I0
aI8
aI0
aI0
aI0
aI0
aI0
aI0
aI0
aI0
aI0
aI0
aI0
aI0
aI0
aI0
aI0
aI0
aI0
aI0
aI0
aI0
aI0
aI0
aI0
aI0
aI0
aI0
aI0
aI0
aI0
aI0
aI0
aI0
aI0
aI0
aI0
aI0
aI0
aI0
aI0
aI0
aI0
aI0
aI0
aI0
aI0
aI0
aI0
aI0
aI0
aI0
aI0
aI0
aI0
aI0
aI0
aI0
aI0
aI0
aI0
aI0
aI0
aI0
asg21
VClass?
p76
sg23
S'NoSet'
p77
sbsg25
F9.0
sbag6
(g7
g8
Ntp78
Rp79
(dp80
g12
I00
sg13
I01
sg14
I01
sg15
F0.0
sg16
(irbf_network
RbfKnowledge
p81
(dp82
g19
(lp83
I0
aI0
aI1
aI0
aI0
aI0
aI0
aI0
aI0
aI0
aI0
aI0
aI0
aI0
aI0
aI0
aI0
aI0
aI0
aI0
aI0
aI0
aI0
aI0
aI0
aI0
aI0
aI0
aI0
aI0
aI0
aI0
aI0
aI0
aI0
aI0
aI0
aI0
aI0
aI0
aI0
aI0
aI0
aI0
aI0
aI0
aI0
aI0
aI0
aI0
aI0
aI0
aI0
aI0
aI0
aI0
aI0
aI0
aI0
aI0
aI0
aI0
aI0
aI0
asg21
VMISS
p84
sg23
S'NoSet'
p85
sbsg25
F9.0
sbag6
(g7
g8
Ntp86
Rp87
(dp88
g12
I00
sg16
Nsg25
I24
sg14
I00
sbag6
(g7
g8
Ntp89
Rp90
(dp91
g12
I00
sg16
Nsg25
I24
sg14
I00
sbag6
(g7
g8
Ntp92
Rp93
(dp94
g12
I00
sg16
Nsg25
I24
sg14
I00
sbag6
(g7
g8
Ntp95
Rp96
(dp97
g12
I00
sg16
Nsg25
I24
sg14
I00
sbag6
(g7
g8
Ntp98
Rp99
(dp100
g12
I00
sg16
Nsg25
I24
sg14
I00
sbag6
(g7
g8
Ntp101
Rp102
(dp103
g12
I00
sg16
Nsg25
I24
sg14
I00
sbag6
(g7
g8
Ntp104
Rp105
(dp106
g12
I00
sg16
Nsg25
I24
sg14
I00
sbag6
(g7
g8
Ntp107
Rp108
(dp109
g12
I00
sg16
Nsg25
I24
sg14
I00
sbag6
(g7
g8
Ntp110
Rp111
(dp112
g12
I00
sg16
Nsg25
I24
sg14
I00
sbag6
(g7
g8
Ntp113
Rp114
(dp115
g12
I00
sg16
Nsg25
I24
sg14
I00
sbag6
(g7
g8
Ntp116
Rp117
(dp118
g12
I00
sg16
Nsg25
I24
sg14
I00
sbag6
(g7
g8
Ntp119
Rp120
(dp121
g12
I00
sg16
Nsg25
I24
sg14
I00
sbag6
(g7
g8
Ntp122
Rp123
(dp124
g12
I00
sg16
Nsg25
I24
sg14
I00
sbag6
(g7
g8
Ntp125
Rp126
(dp127
g12
I00
sg16
Nsg25
I24
sg14
I00
sbag6
(g7
g8
Ntp128
Rp129
(dp130
g12
I00
sg16
Nsg25
I24
sg14
I00
sbag6
(g7
g8
Ntp131
Rp132
(dp133
g12
I00
sg16
Nsg25
I24
sg14
I00
sbag6
(g7
g8
Ntp134
Rp135
(dp136
g12
I00
sg16
Nsg25
I24
sg14
I00
sbag6
(g7
g8
Ntp137
Rp138
(dp139
g12
I00
sg16
Nsg25
I24
sg14
I00
sbag6
(g7
g8
Ntp140
Rp141
(dp142
g12
I00
sg16
Nsg25
I24
sg14
I00
sbag6
(g7
g8
Ntp143
Rp144
(dp145
g12
I00
sg16
Nsg25
I24
sg14
I00
sbag6
(g7
g8
Ntp146
Rp147
(dp148
g12
I00
sg16
Nsg25
I24
sg14
I00
sbag6
(g7
g8
Ntp149
Rp150
(dp151
g12
I00
sg16
Nsg25
I24
sg14
I00
sbag6
(g7
g8
Ntp152
Rp153
(dp154
g12
I00
sg16
Nsg25
I24
sg14
I00
sbag6
(g7
g8
Ntp155
Rp156
(dp157
g12
I00
sg16
Nsg25
I24
sg14
I00
sbag6
(g7
g8
Ntp158
Rp159
(dp160
g12
I00
sg16
Nsg25
I24
sg14
I00
sbag6
(g7
g8
Ntp161
Rp162
(dp163
g12
I00
sg16
Nsg25
I24
sg14
I00
sbag6
(g7
g8
Ntp164
Rp165
(dp166
g12
I00
sg16
Nsg25
I24
sg14
I00
sbag6
(g7
g8
Ntp167
Rp168
(dp169
g12
I00
sg16
Nsg25
I24
sg14
I00
sbag6
(g7
g8
Ntp170
Rp171
(dp172
g12
I00
sg16
Nsg25
I24
sg14
I00
sbag6
(g7
g8
Ntp173
Rp174
(dp175
g12
I00
sg16
Nsg25
I24
sg14
I00
sbag6
(g7
g8
Ntp176
Rp177
(dp178
g12
I00
sg16
Nsg25
I24
sg14
I00
sbag6
(g7
g8
Ntp179
Rp180
(dp181
g12
I00
sg16
Nsg25
I24
sg14
I00
sbag6
(g7
g8
Ntp182
Rp183
(dp184
g12
I00
sg16
Nsg25
I24
sg14
I00
sbag6
(g7
g8
Ntp185
Rp186
(dp187
g12
I00
sg16
Nsg25
I24
sg14
I00
sbag6
(g7
g8
Ntp188
Rp189
(dp190
g12
I00
sg16
Nsg25
I24
sg14
I00
sbag6
(g7
g8
Ntp191
Rp192
(dp193
g12
I00
sg16
Nsg25
I24
sg14
I00
sbag6
(g7
g8
Ntp194
Rp195
(dp196
g12
I00
sg16
Nsg25
I24
sg14
I00
sbag6
(g7
g8
Ntp197
Rp198
(dp199
g12
I00
sg16
Nsg25
I24
sg14
I00
sbag6
(g7
g8
Ntp200
Rp201
(dp202
g12
I00
sg16
Nsg25
I24
sg14
I00
sbag6
(g7
g8
Ntp203
Rp204
(dp205
g12
I00
sg16
Nsg25
I24
sg14
I00
sbag6
(g7
g8
Ntp206
Rp207
(dp208
g12
I00
sg16
Nsg25
I24
sg14
I00
sbag6
(g7
g8
Ntp209
Rp210
(dp211
g12
I00
sg16
Nsg25
I24
sg14
I00
sbag6
(g7
g8
Ntp212
Rp213
(dp214
g12
I00
sg16
Nsg25
I24
sg14
I00
sbag6
(g7
g8
Ntp215
Rp216
(dp217
g12
I00
sg16
Nsg25
I24
sg14
I00
sbag6
(g7
g8
Ntp218
Rp219
(dp220
g12
I00
sg16
Nsg25
I24
sg14
I00
sbag6
(g7
g8
Ntp221
Rp222
(dp223
g12
I00
sg16
Nsg25
I24
sg14
I00
sbag6
(g7
g8
Ntp224
Rp225
(dp226
g12
I00
sg16
Nsg25
I24
sg14
I00
sbag6
(g7
g8
Ntp227
Rp228
(dp229
g12
I00
sg16
Nsg25
I24
sg14
I00
sbag6
(g7
g8
Ntp230
Rp231
(dp232
g12
I00
sg16
Nsg25
I24
sg14
I00
sbag6
(g7
g8
Ntp233
Rp234
(dp235
g12
I00
sg16
Nsg25
I24
sg14
I00
sbag6
(g7
g8
Ntp236
Rp237
(dp238
g12
I00
sg16
Nsg25
I24
sg14
I00
sbag6
(g7
g8
Ntp239
Rp240
(dp241
g12
I00
sg16
Nsg25
I24
sg14
I00
sbag6
(g7
g8
Ntp242
Rp243
(dp244
g12
I00
sg16
Nsg25
I24
sg14
I00
sbag6
(g7
g8
Ntp245
Rp246
(dp247
g12
I00
sg16
Nsg25
I24
sg14
I00
sbag6
(g7
g8
Ntp248
Rp249
(dp250
g12
I00
sg16
Nsg25
I24
sg14
I00
sbag6
(g7
g8
Ntp251
Rp252
(dp253
g12
I00
sg16
Nsg25
I24
sg14
I00
sbag6
(g7
g8
Ntp254
Rp255
(dp256
g12
I00
sg16
Nsg25
I24
sg14
I00
sbag6
(g7
g8
Ntp257
Rp258
(dp259
g12
I00
sg16
Nsg25
I24
sg14
I00
sbag6
(g7
g8
Ntp260
Rp261
(dp262
g12
I00
sg16
Nsg25
I24
sg14
I00
sbag6
(g7
g8
Ntp263
Rp264
(dp265
g12
I00
sg16
Nsg25
I24
sg14
I00
sbag6
(g7
g8
Ntp266
Rp267
(dp268
g12
I00
sg16
Nsg25
I24
sg14
I00
sbag6
(g7
g8
Ntp269
Rp270
(dp271
g12
I00
sg16
Nsg25
I24
sg14
I00
sbag6
(g7
g8
Ntp272
Rp273
(dp274
g12
I00
sg16
Nsg25
I24
sg14
I00
sbag6
(g7
g8
Ntp275
Rp276
(dp277
g12
I00
sg16
Nsg25
I24
sg14
I00
sbag6
(g7
g8
Ntp278
Rp279
(dp280
g12
I00
sg16
Nsg25
I24
sg14
I00
sbag6
(g7
g8
Ntp281
Rp282
(dp283
g12
I00
sg16
Nsg25
I24
sg14
I00
sbag6
(g7
g8
Ntp284
Rp285
(dp286
g12
I00
sg16
Nsg25
I24
sg14
I00
sbag6
(g7
g8
Ntp287
Rp288
(dp289
g12
I00
sg16
Nsg25
I24
sg14
I00
sbag6
(g7
g8
Ntp290
Rp291
(dp292
g12
I00
sg16
Nsg25
I24
sg14
I00
sbag6
(g7
g8
Ntp293
Rp294
(dp295
g12
I00
sg16
Nsg25
I24
sg14
I00
sbag6
(g7
g8
Ntp296
Rp297
(dp298
g12
I00
sg16
Nsg25
I24
sg14
I00
sbag6
(g7
g8
Ntp299
Rp300
(dp301
g12
I00
sg16
Nsg25
I24
sg14
I00
sbag6
(g7
g8
Ntp302
Rp303
(dp304
g12
I00
sg16
Nsg25
I24
sg14
I00
sbag6
(g7
g8
Ntp305
Rp306
(dp307
g12
I00
sg16
Nsg25
I24
sg14
I00
sbag6
(g7
g8
Ntp308
Rp309
(dp310
g12
I00
sg16
Nsg25
I24
sg14
I00
sbag6
(g7
g8
Ntp311
Rp312
(dp313
g12
I00
sg16
Nsg25
I24
sg14
I00
sbag6
(g7
g8
Ntp314
Rp315
(dp316
g12
I00
sg16
Nsg25
I24
sg14
I00
sbag6
(g7
g8
Ntp317
Rp318
(dp319
g12
I00
sg16
Nsg25
I24
sg14
I00
sbag6
(g7
g8
Ntp320
Rp321
(dp322
g12
I00
sg16
Nsg25
I24
sg14
I00
sbag6
(g7
g8
Ntp323
Rp324
(dp325
g12
I00
sg16
Nsg25
I24
sg14
I00
sbag6
(g7
g8
Ntp326
Rp327
(dp328
g12
I00
sg16
Nsg25
I24
sg14
I00
sbag6
(g7
g8
Ntp329
Rp330
(dp331
g12
I00
sg16
Nsg25
I24
sg14
I00
sbag6
(g7
g8
Ntp332
Rp333
(dp334
g12
I00
sg16
Nsg25
I24
sg14
I00
sbag6
(g7
g8
Ntp335
Rp336
(dp337
g12
I00
sg16
Nsg25
I24
sg14
I00
sbag6
(g7
g8
Ntp338
Rp339
(dp340
g12
I00
sg16
Nsg25
I24
sg14
I00
sbag6
(g7
g8
Ntp341
Rp342
(dp343
g12
I00
sg16
Nsg25
I24
sg14
I00
sbag6
(g7
g8
Ntp344
Rp345
(dp346
g12
I00
sg16
Nsg25
I24
sg14
I00
sbag6
(g7
g8
Ntp347
Rp348
(dp349
g12
I00
sg16
Nsg25
I24
sg14
I00
sbag6
(g7
g8
Ntp350
Rp351
(dp352
g12
I00
sg16
Nsg25
I24
sg14
I00
sbag6
(g7
g8
Ntp353
Rp354
(dp355
g12
I00
sg16
Nsg25
I24
sg14
I00
sbag6
(g7
g8
Ntp356
Rp357
(dp358
g12
I00
sg16
Nsg25
I24
sg14
I00
sbasS'_index_recognize'
p359
(lp360
I8
asS'_index_ready_to_learn'
p361
I9
sS'_last_learned_id'
p362
I8
sb.