(irbf_network
RbfNetwork
p0
(dp1
S'_state'
p2
S'MISS'
p3
sS'neuron_list'
p4
(lp5
(irbf_neuron
RbfNeuron
p6
(dp7
S'_degraded'
p8
I00
sS'_knowledge'
p9
(irbf_knowledge
RbfKnowledge
p10
(dp11
S'_pattern'
p12
(lp13
I0
aI0
aI0
aI0
aI0
aI0
aI0
aI0
aI0
aI0
aI0
aI0
aI0
aI0
aI0
aI0
aI0
aI0
aI0
aI0
aI0
aI0
aI0
aI0
aI0
aI0
aI0
aI0
aI0
aI0
aI0
aI0
aI0
aI0
aI0
aI0
aI0
aI0
aI0
aI0
aI0
aI0
aI0
aI0
aI0
aI0
aI0
aI0
aI0
aI0
aI0
aI0
aI0
aI0
aI0
aI0
aI0
aI0
aI0
aI0
aI0
aI0
aI0
aI8
asS'_class'
p14
VPunto
p15
sS'_set'
p16
S'NoSet'
p17
sbsS'_radius'
p18
I10
sS'_has_knowledge'
p19
I01
sba(irbf_neuron
RbfNeuron
p20
(dp21
g8
I00
sg18
I24
sg19
I00
sba(irbf_neuron
RbfNeuron
p22
(dp23
g8
I00
sg18
I24
sg19
I00
sba(irbf_neuron
RbfNeuron
p24
(dp25
g8
I00
sg18
I24
sg19
I00
sba(irbf_neuron
RbfNeuron
p26
(dp27
g8
I00
sg18
I24
sg19
I00
sba(irbf_neuron
RbfNeuron
p28
(dp29
g8
I00
sg18
I24
sg19
I00
sba(irbf_neuron
RbfNeuron
p30
(dp31
g8
I00
sg18
I24
sg19
I00
sba(irbf_neuron
RbfNeuron
p32
(dp33
g8
I00
sg18
I24
sg19
I00
sba(irbf_neuron
RbfNeuron
p34
(dp35
g8
I00
sg18
I24
sg19
I00
sba(irbf_neuron
RbfNeuron
p36
(dp37
g8
I00
sg18
I24
sg19
I00
sba(irbf_neuron
RbfNeuron
p38
(dp39
g8
I00
sg18
I24
sg19
I00
sba(irbf_neuron
RbfNeuron
p40
(dp41
g8
I00
sg18
I24
sg19
I00
sba(irbf_neuron
RbfNeuron
p42
(dp43
g8
I00
sg18
I24
sg19
I00
sba(irbf_neuron
RbfNeuron
p44
(dp45
g8
I00
sg18
I24
sg19
I00
sba(irbf_neuron
RbfNeuron
p46
(dp47
g8
I00
sg18
I24
sg19
I00
sba(irbf_neuron
RbfNeuron
p48
(dp49
g8
I00
sg18
I24
sg19
I00
sba(irbf_neuron
RbfNeuron
p50
(dp51
g8
I00
sg18
I24
sg19
I00
sba(irbf_neuron
RbfNeuron
p52
(dp53
g8
I00
sg18
I24
sg19
I00
sba(irbf_neuron
RbfNeuron
p54
(dp55
g8
I00
sg18
I24
sg19
I00
sba(irbf_neuron
RbfNeuron
p56
(dp57
g8
I00
sg18
I24
sg19
I00
sba(irbf_neuron
RbfNeuron
p58
(dp59
g8
I00
sg18
I24
sg19
I00
sba(irbf_neuron
RbfNeuron
p60
(dp61
g8
I00
sg18
I24
sg19
I00
sba(irbf_neuron
RbfNeuron
p62
(dp63
g8
I00
sg18
I24
sg19
I00
sba(irbf_neuron
RbfNeuron
p64
(dp65
g8
I00
sg18
I24
sg19
I00
sba(irbf_neuron
RbfNeuron
p66
(dp67
g8
I00
sg18
I24
sg19
I00
sba(irbf_neuron
RbfNeuron
p68
(dp69
g8
I00
sg18
I24
sg19
I00
sba(irbf_neuron
RbfNeuron
p70
(dp71
g8
I00
sg18
I24
sg19
I00
sba(irbf_neuron
RbfNeuron
p72
(dp73
g8
I00
sg18
I24
sg19
I00
sba(irbf_neuron
RbfNeuron
p74
(dp75
g8
I00
sg18
I24
sg19
I00
sba(irbf_neuron
RbfNeuron
p76
(dp77
g8
I00
sg18
I24
sg19
I00
sba(irbf_neuron
RbfNeuron
p78
(dp79
g8
I00
sg18
I24
sg19
I00
sba(irbf_neuron
RbfNeuron
p80
(dp81
g8
I00
sg18
I24
sg19
I00
sba(irbf_neuron
RbfNeuron
p82
(dp83
g8
I00
sg18
I24
sg19
I00
sba(irbf_neuron
RbfNeuron
p84
(dp85
g8
I00
sg18
I24
sg19
I00
sba(irbf_neuron
RbfNeuron
p86
(dp87
g8
I00
sg18
I24
sg19
I00
sba(irbf_neuron
RbfNeuron
p88
(dp89
g8
I00
sg18
I24
sg19
I00
sba(irbf_neuron
RbfNeuron
p90
(dp91
g8
I00
sg18
I24
sg19
I00
sba(irbf_neuron
RbfNeuron
p92
(dp93
g8
I00
sg18
I24
sg19
I00
sba(irbf_neuron
RbfNeuron
p94
(dp95
g8
I00
sg18
I24
sg19
I00
sba(irbf_neuron
RbfNeuron
p96
(dp97
g8
I00
sg18
I24
sg19
I00
sba(irbf_neuron
RbfNeuron
p98
(dp99
g8
I00
sg18
I24
sg19
I00
sba(irbf_neuron
RbfNeuron
p100
(dp101
g8
I00
sg18
I24
sg19
I00
sba(irbf_neuron
RbfNeuron
p102
(dp103
g8
I00
sg18
I24
sg19
I00
sba(irbf_neuron
RbfNeuron
p104
(dp105
g8
I00
sg18
I24
sg19
I00
sba(irbf_neuron
RbfNeuron
p106
(dp107
g8
I00
sg18
I24
sg19
I00
sba(irbf_neuron
RbfNeuron
p108
(dp109
g8
I00
sg18
I24
sg19
I00
sba(irbf_neuron
RbfNeuron
p110
(dp111
g8
I00
sg18
I24
sg19
I00
sba(irbf_neuron
RbfNeuron
p112
(dp113
g8
I00
sg18
I24
sg19
I00
sba(irbf_neuron
RbfNeuron
p114
(dp115
g8
I00
sg18
I24
sg19
I00
sba(irbf_neuron
RbfNeuron
p116
(dp117
g8
I00
sg18
I24
sg19
I00
sba(irbf_neuron
RbfNeuron
p118
(dp119
g8
I00
sg18
I24
sg19
I00
sba(irbf_neuron
RbfNeuron
p120
(dp121
g8
I00
sg18
I24
sg19
I00
sba(irbf_neuron
RbfNeuron
p122
(dp123
g8
I00
sg18
I24
sg19
I00
sba(irbf_neuron
RbfNeuron
p124
(dp125
g8
I00
sg18
I24
sg19
I00
sba(irbf_neuron
RbfNeuron
p126
(dp127
g8
I00
sg18
I24
sg19
I00
sba(irbf_neuron
RbfNeuron
p128
(dp129
g8
I00
sg18
I24
sg19
I00
sba(irbf_neuron
RbfNeuron
p130
(dp131
g8
I00
sg18
I24
sg19
I00
sba(irbf_neuron
RbfNeuron
p132
(dp133
g8
I00
sg18
I24
sg19
I00
sba(irbf_neuron
RbfNeuron
p134
(dp135
g8
I00
sg18
I24
sg19
I00
sba(irbf_neuron
RbfNeuron
p136
(dp137
g8
I00
sg18
I24
sg19
I00
sba(irbf_neuron
RbfNeuron
p138
(dp139
g8
I00
sg18
I24
sg19
I00
sba(irbf_neuron
RbfNeuron
p140
(dp141
g8
I00
sg18
I24
sg19
I00
sba(irbf_neuron
RbfNeuron
p142
(dp143
g8
I00
sg18
I24
sg19
I00
sba(irbf_neuron
RbfNeuron
p144
(dp145
g8
I00
sg18
I24
sg19
I00
sba(irbf_neuron
RbfNeuron
p146
(dp147
g8
I00
sg18
I24
sg19
I00
sba(irbf_neuron
RbfNeuron
p148
(dp149
g8
I00
sg18
I24
sg19
I00
sba(irbf_neuron
RbfNeuron
p150
(dp151
g8
I00
sg18
I24
sg19
I00
sba(irbf_neuron
RbfNeuron
p152
(dp153
g8
I00
sg18
I24
sg19
I00
sba(irbf_neuron
RbfNeuron
p154
(dp155
g8
I00
sg18
I24
sg19
I00
sba(irbf_neuron
RbfNeuron
p156
(dp157
g8
I00
sg18
I24
sg19
I00
sba(irbf_neuron
RbfNeuron
p158
(dp159
g8
I00
sg18
I24
sg19
I00
sba(irbf_neuron
RbfNeuron
p160
(dp161
g8
I00
sg18
I24
sg19
I00
sba(irbf_neuron
RbfNeuron
p162
(dp163
g8
I00
sg18
I24
sg19
I00
sba(irbf_neuron
RbfNeuron
p164
(dp165
g8
I00
sg18
I24
sg19
I00
sba(irbf_neuron
RbfNeuron
p166
(dp167
g8
I00
sg18
I24
sg19
I00
sba(irbf_neuron
RbfNeuron
p168
(dp169
g8
I00
sg18
I24
sg19
I00
sba(irbf_neuron
RbfNeuron
p170
(dp171
g8
I00
sg18
I24
sg19
I00
sba(irbf_neuron
RbfNeuron
p172
(dp173
g8
I00
sg18
I24
sg19
I00
sba(irbf_neuron
RbfNeuron
p174
(dp175
g8
I00
sg18
I24
sg19
I00
sba(irbf_neuron
RbfNeuron
p176
(dp177
g8
I00
sg18
I24
sg19
I00
sba(irbf_neuron
RbfNeuron
p178
(dp179
g8
I00
sg18
I24
sg19
I00
sba(irbf_neuron
RbfNeuron
p180
(dp181
g8
I00
sg18
I24
sg19
I00
sba(irbf_neuron
RbfNeuron
p182
(dp183
g8
I00
sg18
I24
sg19
I00
sba(irbf_neuron
RbfNeuron
p184
(dp185
g8
I00
sg18
I24
sg19
I00
sba(irbf_neuron
RbfNeuron
p186
(dp187
g8
I00
sg18
I24
sg19
I00
sba(irbf_neuron
RbfNeuron
p188
(dp189
g8
I00
sg18
I24
sg19
I00
sba(irbf_neuron
RbfNeuron
p190
(dp191
g8
I00
sg18
I24
sg19
I00
sba(irbf_neuron
RbfNeuron
p192
(dp193
g8
I00
sg18
I24
sg19
I00
sba(irbf_neuron
RbfNeuron
p194
(dp195
g8
I00
sg18
I24
sg19
I00
sba(irbf_neuron
RbfNeuron
p196
(dp197
g8
I00
sg18
I24
sg19
I00
sba(irbf_neuron
RbfNeuron
p198
(dp199
g8
I00
sg18
I24
sg19
I00
sba(irbf_neuron
RbfNeuron
p200
(dp201
g8
I00
sg18
I24
sg19
I00
sba(irbf_neuron
RbfNeuron
p202
(dp203
g8
I00
sg18
I24
sg19
I00
sba(irbf_neuron
RbfNeuron
p204
(dp205
g8
I00
sg18
I24
sg19
I00
sba(irbf_neuron
RbfNeuron
p206
(dp207
g8
I00
sg18
I24
sg19
I00
sba(irbf_neuron
RbfNeuron
p208
(dp209
g8
I00
sg18
I24
sg19
I00
sba(irbf_neuron
RbfNeuron
p210
(dp211
g8
I00
sg18
I24
sg19
I00
sba(irbf_neuron
RbfNeuron
p212
(dp213
g8
I00
sg18
I24
sg19
I00
sba(irbf_neuron
RbfNeuron
p214
(dp215
g8
I00
sg18
I24
sg19
I00
sba(irbf_neuron
RbfNeuron
p216
(dp217
g8
I00
sg18
I24
sg19
I00
sbasS'_index_recognize'
p218
(lp219
sS'_index_ready_to_learn'
p220
I1
sb.