(irel_network
RelNetwork
p0
(dp1
S'neuron_list'
p2
(lp3
(irel_neuron
RelNeuron
p4
(dp5
S'_hit'
p6
I00
sS'_knowledge'
p7
(irel_knowledge
RelKnowledge
p8
(dp9
S'_h_id'
p10
I0
sS'_s_id'
p11
I0
sS'_weight'
p12
I7
sbsS'_has_knowledge'
p13
I01
sba(irel_neuron
RelNeuron
p14
(dp15
g6
I00
sg7
(irel_knowledge
RelKnowledge
p16
(dp17
g10
I1
sg11
I1
sg12
I5
sbsg13
I01
sba(irel_neuron
RelNeuron
p18
(dp19
g6
I00
sg7
(irel_knowledge
RelKnowledge
p20
(dp21
g10
I2
sg11
I2
sg12
I4
sbsg13
I01
sba(irel_neuron
RelNeuron
p22
(dp23
g6
I00
sg7
(irel_knowledge
RelKnowledge
p24
(dp25
g10
I3
sg11
I3
sg12
I2
sbsg13
I01
sba(irel_neuron
RelNeuron
p26
(dp27
g6
I00
sg7
(irel_knowledge
RelKnowledge
p28
(dp29
g10
I4
sg11
I4
sg12
I2
sbsg13
I01
sba(irel_neuron
RelNeuron
p30
(dp31
g6
I01
sg7
(irel_knowledge
RelKnowledge
p32
(dp33
g10
I5
sg11
I5
sg12
I1
sbsg13
I01
sba(irel_neuron
RelNeuron
p34
(dp35
g6
I00
sg7
(irel_knowledge
RelKnowledge
p36
(dp37
g10
I6
sg11
I6
sg12
I0
sbsg13
I01
sba(irel_neuron
RelNeuron
p38
(dp39
g6
I00
sg7
(irel_knowledge
RelKnowledge
p40
(dp41
g10
I7
sg11
I8
sg12
I0
sbsg13
I01
sba(irel_neuron
RelNeuron
p42
(dp43
g6
I00
sg13
I00
sba(irel_neuron
RelNeuron
p44
(dp45
g6
I00
sg13
I00
sba(irel_neuron
RelNeuron
p46
(dp47
g6
I00
sg13
I00
sba(irel_neuron
RelNeuron
p48
(dp49
g6
I00
sg13
I00
sba(irel_neuron
RelNeuron
p50
(dp51
g6
I00
sg13
I00
sba(irel_neuron
RelNeuron
p52
(dp53
g6
I00
sg13
I00
sba(irel_neuron
RelNeuron
p54
(dp55
g6
I00
sg13
I00
sba(irel_neuron
RelNeuron
p56
(dp57
g6
I00
sg13
I00
sba(irel_neuron
RelNeuron
p58
(dp59
g6
I00
sg13
I00
sba(irel_neuron
RelNeuron
p60
(dp61
g6
I00
sg13
I00
sba(irel_neuron
RelNeuron
p62
(dp63
g6
I00
sg13
I00
sba(irel_neuron
RelNeuron
p64
(dp65
g6
I00
sg13
I00
sba(irel_neuron
RelNeuron
p66
(dp67
g6
I00
sg13
I00
sba(irel_neuron
RelNeuron
p68
(dp69
g6
I00
sg13
I00
sba(irel_neuron
RelNeuron
p70
(dp71
g6
I00
sg13
I00
sba(irel_neuron
RelNeuron
p72
(dp73
g6
I00
sg13
I00
sba(irel_neuron
RelNeuron
p74
(dp75
g6
I00
sg13
I00
sba(irel_neuron
RelNeuron
p76
(dp77
g6
I00
sg13
I00
sba(irel_neuron
RelNeuron
p78
(dp79
g6
I00
sg13
I00
sba(irel_neuron
RelNeuron
p80
(dp81
g6
I00
sg13
I00
sba(irel_neuron
RelNeuron
p82
(dp83
g6
I00
sg13
I00
sba(irel_neuron
RelNeuron
p84
(dp85
g6
I00
sg13
I00
sba(irel_neuron
RelNeuron
p86
(dp87
g6
I00
sg13
I00
sba(irel_neuron
RelNeuron
p88
(dp89
g6
I00
sg13
I00
sba(irel_neuron
RelNeuron
p90
(dp91
g6
I00
sg13
I00
sba(irel_neuron
RelNeuron
p92
(dp93
g6
I00
sg13
I00
sba(irel_neuron
RelNeuron
p94
(dp95
g6
I00
sg13
I00
sba(irel_neuron
RelNeuron
p96
(dp97
g6
I00
sg13
I00
sba(irel_neuron
RelNeuron
p98
(dp99
g6
I00
sg13
I00
sba(irel_neuron
RelNeuron
p100
(dp101
g6
I00
sg13
I00
sba(irel_neuron
RelNeuron
p102
(dp103
g6
I00
sg13
I00
sba(irel_neuron
RelNeuron
p104
(dp105
g6
I00
sg13
I00
sba(irel_neuron
RelNeuron
p106
(dp107
g6
I00
sg13
I00
sba(irel_neuron
RelNeuron
p108
(dp109
g6
I00
sg13
I00
sba(irel_neuron
RelNeuron
p110
(dp111
g6
I00
sg13
I00
sba(irel_neuron
RelNeuron
p112
(dp113
g6
I00
sg13
I00
sba(irel_neuron
RelNeuron
p114
(dp115
g6
I00
sg13
I00
sba(irel_neuron
RelNeuron
p116
(dp117
g6
I00
sg13
I00
sba(irel_neuron
RelNeuron
p118
(dp119
g6
I00
sg13
I00
sba(irel_neuron
RelNeuron
p120
(dp121
g6
I00
sg13
I00
sba(irel_neuron
RelNeuron
p122
(dp123
g6
I00
sg13
I00
sba(irel_neuron
RelNeuron
p124
(dp125
g6
I00
sg13
I00
sba(irel_neuron
RelNeuron
p126
(dp127
g6
I00
sg13
I00
sba(irel_neuron
RelNeuron
p128
(dp129
g6
I00
sg13
I00
sba(irel_neuron
RelNeuron
p130
(dp131
g6
I00
sg13
I00
sba(irel_neuron
RelNeuron
p132
(dp133
g6
I00
sg13
I00
sba(irel_neuron
RelNeuron
p134
(dp135
g6
I00
sg13
I00
sba(irel_neuron
RelNeuron
p136
(dp137
g6
I00
sg13
I00
sba(irel_neuron
RelNeuron
p138
(dp139
g6
I00
sg13
I00
sba(irel_neuron
RelNeuron
p140
(dp141
g6
I00
sg13
I00
sba(irel_neuron
RelNeuron
p142
(dp143
g6
I00
sg13
I00
sba(irel_neuron
RelNeuron
p144
(dp145
g6
I00
sg13
I00
sba(irel_neuron
RelNeuron
p146
(dp147
g6
I00
sg13
I00
sba(irel_neuron
RelNeuron
p148
(dp149
g6
I00
sg13
I00
sba(irel_neuron
RelNeuron
p150
(dp151
g6
I00
sg13
I00
sba(irel_neuron
RelNeuron
p152
(dp153
g6
I00
sg13
I00
sba(irel_neuron
RelNeuron
p154
(dp155
g6
I00
sg13
I00
sba(irel_neuron
RelNeuron
p156
(dp157
g6
I00
sg13
I00
sba(irel_neuron
RelNeuron
p158
(dp159
g6
I00
sg13
I00
sba(irel_neuron
RelNeuron
p160
(dp161
g6
I00
sg13
I00
sba(irel_neuron
RelNeuron
p162
(dp163
g6
I00
sg13
I00
sba(irel_neuron
RelNeuron
p164
(dp165
g6
I00
sg13
I00
sba(irel_neuron
RelNeuron
p166
(dp167
g6
I00
sg13
I00
sba(irel_neuron
RelNeuron
p168
(dp169
g6
I00
sg13
I00
sba(irel_neuron
RelNeuron
p170
(dp171
g6
I00
sg13
I00
sba(irel_neuron
RelNeuron
p172
(dp173
g6
I00
sg13
I00
sba(irel_neuron
RelNeuron
p174
(dp175
g6
I00
sg13
I00
sba(irel_neuron
RelNeuron
p176
(dp177
g6
I00
sg13
I00
sba(irel_neuron
RelNeuron
p178
(dp179
g6
I00
sg13
I00
sba(irel_neuron
RelNeuron
p180
(dp181
g6
I00
sg13
I00
sba(irel_neuron
RelNeuron
p182
(dp183
g6
I00
sg13
I00
sba(irel_neuron
RelNeuron
p184
(dp185
g6
I00
sg13
I00
sba(irel_neuron
RelNeuron
p186
(dp187
g6
I00
sg13
I00
sba(irel_neuron
RelNeuron
p188
(dp189
g6
I00
sg13
I00
sba(irel_neuron
RelNeuron
p190
(dp191
g6
I00
sg13
I00
sba(irel_neuron
RelNeuron
p192
(dp193
g6
I00
sg13
I00
sba(irel_neuron
RelNeuron
p194
(dp195
g6
I00
sg13
I00
sba(irel_neuron
RelNeuron
p196
(dp197
g6
I00
sg13
I00
sba(irel_neuron
RelNeuron
p198
(dp199
g6
I00
sg13
I00
sba(irel_neuron
RelNeuron
p200
(dp201
g6
I00
sg13
I00
sba(irel_neuron
RelNeuron
p202
(dp203
g6
I00
sg13
I00
sba(irel_neuron
RelNeuron
p204
(dp205
g6
I00
sg13
I00
sba(irel_neuron
RelNeuron
p206
(dp207
g6
I00
sg13
I00
sba(irel_neuron
RelNeuron
p208
(dp209
g6
I00
sg13
I00
sba(irel_neuron
RelNeuron
p210
(dp211
g6
I00
sg13
I00
sba(irel_neuron
RelNeuron
p212
(dp213
g6
I00
sg13
I00
sba(irel_neuron
RelNeuron
p214
(dp215
g6
I00
sg13
I00
sba(irel_neuron
RelNeuron
p216
(dp217
g6
I00
sg13
I00
sba(irel_neuron
RelNeuron
p218
(dp219
g6
I00
sg13
I00
sba(irel_neuron
RelNeuron
p220
(dp221
g6
I00
sg13
I00
sba(irel_neuron
RelNeuron
p222
(dp223
g6
I00
sg13
I00
sba(irel_neuron
RelNeuron
p224
(dp225
g6
I00
sg13
I00
sbasS'_index_ready_to_learn'
p226
I8
sb.