(irbf_network
RbfNetwork
p0
(dp1
S'_state'
p2
S'MISS'
p3
sS'neuron_list'
p4
(lp5
(irbf_neuron
RbfNeuron
p6
(dp7
S'_degraded'
p8
I00
sS'_hit'
p9
I00
sS'_has_knowledge'
p10
I01
sS'_distance'
p11
F17.0
sS'_knowledge'
p12
(irbf_knowledge
RbfKnowledge
p13
(dp14
S'_pattern'
p15
(lp16
I0
aI8
aI3
aI0
aI0
aI0
aI1
aI0
aI0
aI0
aI1
aI0
aI0
aI0
aI1
aI0
aI0
aI0
aI1
aI0
aI0
aI0
aI3
aI0
aI0
aI0
aI1
aI0
aI0
aI0
aI0
aI0
aI0
aI0
aI0
aI0
aI0
aI0
aI0
aI0
aI0
aI0
aI0
aI0
aI0
aI0
aI0
aI0
aI0
aI0
aI0
aI0
aI0
aI0
aI0
aI0
aI0
aI0
aI0
aI0
aI0
aI0
aI0
aI0
asS'_class'
p17
S'0'
p18
sS'_set'
p19
S'NoSet'
p20
sbsS'_radius'
p21
I10
sba(irbf_neuron
RbfNeuron
p22
(dp23
g8
I00
sg9
I00
sg10
I01
sg11
F49.0
sg12
(irbf_knowledge
RbfKnowledge
p24
(dp25
g15
(lp26
I0
aI8
aI3
aI0
aI0
aI0
aI2
aI0
aI0
aI0
aI2
aI0
aI0
aI8
aI3
aI0
aI0
aI8
aI0
aI0
aI0
aI8
aI0
aI0
aI0
aI8
aI3
aI0
aI0
aI0
aI0
aI0
aI0
aI0
aI0
aI0
aI0
aI0
aI0
aI0
aI0
aI0
aI0
aI0
aI0
aI0
aI0
aI0
aI0
aI0
aI0
aI0
aI0
aI0
aI0
aI0
aI0
aI0
aI0
aI0
aI0
aI0
aI0
aI0
asg17
S'1'
p27
sg19
g20
sbsg21
I10
sba(irbf_neuron
RbfNeuron
p28
(dp29
g8
I00
sg9
I00
sg10
I01
sg11
F49.0
sg12
(irbf_knowledge
RbfKnowledge
p30
(dp31
g15
(lp32
I0
aI8
aI3
aI0
aI0
aI8
aI0
aI0
aI0
aI8
aI0
aI0
aI0
aI8
aI3
aI0
aI0
aI8
aI0
aI0
aI0
aI8
aI0
aI0
aI0
aI8
aI3
aI0
aI0
aI0
aI0
aI0
aI0
aI0
aI0
aI0
aI0
aI0
aI0
aI0
aI0
aI0
aI0
aI0
aI0
aI0
aI0
aI0
aI0
aI0
aI0
aI0
aI0
aI0
aI0
aI0
aI0
aI0
aI0
aI0
aI0
aI0
aI0
aI0
asg17
S'2'
p33
sg19
g20
sbsg21
F6.0
sba(irbf_neuron
RbfNeuron
p34
(dp35
g8
I01
sg9
I01
sg10
I01
sg11
F0.0
sg12
(irbf_knowledge
RbfKnowledge
p36
(dp37
g15
(lp38
I0
aI8
aI0
aI0
aI0
aI8
aI0
aI0
aI0
aI8
aI0
aI0
aI0
aI8
aI3
aI0
aI0
aI8
aI2
aI0
aI0
aI8
aI2
aI0
aI0
aI8
aI2
aI0
aI0
aI0
aI0
aI0
aI0
aI0
aI0
aI0
aI0
aI0
aI0
aI0
aI0
aI0
aI0
aI0
aI0
aI0
aI0
aI0
aI0
aI0
aI0
aI0
aI0
aI0
aI0
aI0
aI0
aI0
aI0
aI0
aI0
aI0
aI0
aI0
asg17
S'3'
p39
sg19
g20
sbsg21
F0.0
sba(irbf_neuron
RbfNeuron
p40
(dp41
g8
I00
sg9
I00
sg10
I01
sg11
F37.0
sg12
(irbf_knowledge
RbfKnowledge
p42
(dp43
g15
(lp44
I0
aI8
aI3
aI0
aI0
aI8
aI0
aI0
aI0
aI8
aI0
aI0
aI0
aI8
aI3
aI0
aI0
aI0
aI2
aI0
aI0
aI0
aI2
aI0
aI0
aI8
aI3
aI0
aI0
aI0
aI0
aI0
aI0
aI0
aI0
aI0
aI0
aI0
aI0
aI0
aI0
aI0
aI0
aI0
aI0
aI0
aI0
aI0
aI0
aI0
aI0
aI0
aI0
aI0
aI0
aI0
aI0
aI0
aI0
aI0
aI0
aI0
aI0
aI0
asg17
S'4'
p45
sg19
g20
sbsg21
F4.0
sba(irbf_neuron
RbfNeuron
p46
(dp47
g8
I00
sg9
I00
sg10
I01
sg11
F37.0
sg12
(irbf_knowledge
RbfKnowledge
p48
(dp49
g15
(lp50
I0
aI8
aI3
aI0
aI0
aI8
aI2
aI0
aI0
aI8
aI2
aI0
aI0
aI8
aI3
aI0
aI0
aI0
aI2
aI0
aI0
aI0
aI2
aI0
aI0
aI8
aI3
aI0
aI0
aI0
aI0
aI0
aI0
aI0
aI0
aI0
aI0
aI0
aI0
aI0
aI0
aI0
aI0
aI0
aI0
aI0
aI0
aI0
aI0
aI0
aI0
aI0
aI0
aI0
aI0
aI0
aI0
aI0
aI0
aI0
aI0
aI0
aI0
aI0
asg17
S'5'
p51
sg19
g20
sbsg21
F4.0
sba(irbf_neuron
RbfNeuron
p52
(dp53
g8
I00
sg9
I00
sg10
I01
sg11
F49.0
sg12
(irbf_knowledge
RbfKnowledge
p54
(dp55
g15
(lp56
I0
aI8
aI0
aI0
aI0
aI8
aI0
aI0
aI0
aI8
aI0
aI0
aI0
aI8
aI0
aI0
aI0
aI8
aI0
aI0
aI0
aI8
aI0
aI0
aI0
aI8
aI3
aI0
aI0
aI0
aI0
aI0
aI0
aI0
aI0
aI0
aI0
aI0
aI0
aI0
aI0
aI0
aI0
aI0
aI0
aI0
aI0
aI0
aI0
aI0
aI0
aI0
aI0
aI0
aI0
aI0
aI0
aI0
aI0
aI0
aI0
aI0
aI0
aI0
asg17
S'6'
p57
sg19
g20
sbsg21
F6.0
sba(irbf_neuron
RbfNeuron
p58
(dp59
g8
I00
sg9
I00
sg10
I01
sg11
F53.0
sg12
(irbf_knowledge
RbfKnowledge
p60
(dp61
g15
(lp62
I0
aI8
aI3
aI0
aI0
aI8
aI2
aI0
aI0
aI8
aI2
aI0
aI0
aI8
aI3
aI0
aI0
aI8
aI2
aI0
aI0
aI8
aI2
aI0
aI0
aI8
aI3
aI0
aI0
aI0
aI0
aI0
aI0
aI0
aI0
aI0
aI0
aI0
aI0
aI0
aI0
aI0
aI0
aI0
aI0
aI0
aI0
aI0
aI0
aI0
aI0
aI0
aI0
aI0
aI0
aI0
aI0
aI0
aI0
aI0
aI0
aI0
aI0
aI0
asg17
S'7'
p63
sg19
S'NoSet'
p64
sbsg21
F1.0
sba(irbf_neuron
RbfNeuron
p65
(dp66
g8
I00
sg9
I00
sg10
I01
sg11
F56.0
sg12
(irbf_knowledge
RbfKnowledge
p67
(dp68
g15
(lp69
I0
aI8
aI0
aI0
aI0
aI8
aI0
aI0
aI0
aI8
aI0
aI0
aI0
aI8
aI3
aI0
aI0
aI8
aI2
aI0
aI0
aI8
aI2
aI0
aI0
aI8
aI3
aI0
aI0
aI0
aI0
aI0
aI0
aI0
aI0
aI0
aI0
aI0
aI0
aI0
aI0
aI0
aI0
aI0
aI0
aI0
aI0
aI0
aI0
aI0
aI0
aI0
aI0
aI0
aI0
aI0
aI0
aI0
aI0
aI0
aI0
aI0
aI0
aI0
asg17
S'8'
p70
sg19
g64
sbsg21
F1.0
sba(irbf_neuron
RbfNeuron
p71
(dp72
g8
I00
sg9
I00
sg10
I01
sg11
F52.0
sg12
(irbf_knowledge
RbfKnowledge
p73
(dp74
g15
(lp75
I0
aI8
aI3
aI0
aI0
aI8
aI2
aI0
aI0
aI8
aI2
aI0
aI0
aI8
aI2
aI0
aI0
aI8
aI2
aI0
aI0
aI8
aI2
aI0
aI0
aI8
aI3
aI0
aI0
aI0
aI0
aI0
aI0
aI0
aI0
aI0
aI0
aI0
aI0
aI0
aI0
aI0
aI0
aI0
aI0
aI0
aI0
aI0
aI0
aI0
aI0
aI0
aI0
aI0
aI0
aI0
aI0
aI0
aI0
aI0
aI0
aI0
aI0
aI0
asg17
S'9'
p76
sg19
g64
sbsg21
F9.0
sba(irbf_neuron
RbfNeuron
p77
(dp78
g8
I00
sg9
I00
sg10
I01
sg11
F55.0
sg12
(irbf_knowledge
RbfKnowledge
p79
(dp80
g15
(lp81
I0
aI8
aI0
aI0
aI0
aI8
aI0
aI0
aI0
aI8
aI0
aI0
aI0
aI8
aI3
aI0
aI0
aI8
aI2
aI0
aI0
aI8
aI2
aI0
aI0
aI8
aI2
aI0
aI0
aI0
aI0
aI0
aI0
aI0
aI0
aI0
aI0
aI0
aI0
aI0
aI0
aI0
aI0
aI0
aI0
aI0
aI0
aI0
aI0
aI0
aI0
aI0
aI0
aI0
aI0
aI0
aI0
aI0
aI0
aI0
aI0
aI0
aI0
aI0
asg17
S'10'
p82
sg19
S'NoSet'
p83
sbsg21
F1.0
sba(irbf_neuron
RbfNeuron
p84
(dp85
g8
I01
sg9
I01
sg10
I01
sg11
F0.0
sg12
(irbf_knowledge
RbfKnowledge
p86
(dp87
g15
(lp88
I0
aI0
aI1
aI0
aI0
aI8
aI3
aI0
aI0
aI0
aI1
aI0
aI0
aI0
aI0
aI0
aI0
aI0
aI0
aI0
aI0
aI0
aI0
aI0
aI0
aI0
aI0
aI0
aI0
aI0
aI0
aI0
aI0
aI0
aI0
aI0
aI0
aI0
aI0
aI0
aI0
aI0
aI0
aI0
aI0
aI0
aI0
aI0
aI0
aI0
aI0
aI0
aI0
aI0
aI0
aI0
aI0
aI0
aI0
aI0
aI0
aI0
aI0
aI0
asg17
S'11'
p89
sg19
S'NoSet'
p90
sbsg21
F0.0
sba(irbf_neuron
RbfNeuron
p91
(dp92
g8
I00
sg9
I00
sg10
I01
sg11
F31.0
sg12
(irbf_knowledge
RbfKnowledge
p93
(dp94
g15
(lp95
I0
aI0
aI1
aI0
aI0
aI8
aI3
aI0
aI0
aI0
aI1
aI0
aI0
aI0
aI0
aI0
aI0
aI0
aI0
aI0
aI0
aI0
aI0
aI0
aI0
aI0
aI0
aI0
aI0
aI0
aI0
aI0
aI0
aI0
aI0
aI0
aI0
aI0
aI0
aI0
aI0
aI0
aI0
aI0
aI0
aI0
aI0
aI0
aI0
aI0
aI0
aI0
aI0
aI0
aI0
aI0
aI0
aI0
aI0
aI0
aI0
aI0
aI0
aI0
asg17
S'12'
p96
sg19
g90
sbsg21
F0.0
sba(irbf_neuron
RbfNeuron
p97
(dp98
g8
I01
sg9
I01
sg10
I01
sg11
F0.0
sg12
(irbf_knowledge
RbfKnowledge
p99
(dp100
g15
(lp101
I0
aI0
aI1
aI0
aI0
aI8
aI3
aI0
aI0
aI0
aI1
aI0
aI0
aI0
aI0
aI0
aI0
aI0
aI0
aI0
aI0
aI0
aI0
aI0
aI0
aI0
aI0
aI0
aI0
aI0
aI0
aI0
aI0
aI0
aI0
aI0
aI0
aI0
aI0
aI0
aI0
aI0
aI0
aI0
aI0
aI0
aI0
aI0
aI0
aI0
aI0
aI0
aI0
aI0
aI0
aI0
aI0
aI0
aI0
aI0
aI0
aI0
aI0
aI0
asg17
S'12'
p102
sg19
g90
sbsg21
F0.0
sba(irbf_neuron
RbfNeuron
p103
(dp104
g8
I00
sg9
I00
sg10
I01
sg11
F31.0
sg12
(irbf_knowledge
RbfKnowledge
p105
(dp106
g15
(lp107
I0
aI0
aI1
aI0
aI0
aI8
aI3
aI0
aI0
aI0
aI1
aI0
aI0
aI0
aI0
aI0
aI0
aI0
aI0
aI0
aI0
aI0
aI0
aI0
aI0
aI0
aI0
aI0
aI0
aI0
aI0
aI0
aI0
aI0
aI0
aI0
aI0
aI0
aI0
aI0
aI0
aI0
aI0
aI0
aI0
aI0
aI0
aI0
aI0
aI0
aI0
aI0
aI0
aI0
aI0
aI0
aI0
aI0
aI0
aI0
aI0
aI0
aI0
aI0
asg17
S'13'
p108
sg19
g90
sbsg21
F0.0
sba(irbf_neuron
RbfNeuron
p109
(dp110
g8
I00
sg9
I00
sg10
I01
sg11
F31.0
sg12
(irbf_knowledge
RbfKnowledge
p111
(dp112
g15
(lp113
I0
aI0
aI1
aI0
aI0
aI8
aI3
aI0
aI0
aI0
aI1
aI0
aI0
aI0
aI0
aI0
aI0
aI0
aI0
aI0
aI0
aI0
aI0
aI0
aI0
aI0
aI0
aI0
aI0
aI0
aI0
aI0
aI0
aI0
aI0
aI0
aI0
aI0
aI0
aI0
aI0
aI0
aI0
aI0
aI0
aI0
aI0
aI0
aI0
aI0
aI0
aI0
aI0
aI0
aI0
aI0
aI0
aI0
aI0
aI0
aI0
aI0
aI0
aI0
asg17
S'13'
p114
sg19
g90
sbsg21
I10
sba(irbf_neuron
RbfNeuron
p115
(dp116
g8
I00
sg12
(irbf_knowledge
RbfKnowledge
p117
(dp118
g15
(lp119
I0
aI8
aI3
aI0
aI0
aI0
aI0
aI0
aI0
aI8
aI3
aI0
aI0
aI0
aI0
aI0
aI0
aI0
aI0
aI0
aI0
aI0
aI0
aI0
aI0
aI0
aI0
aI0
aI0
aI0
aI0
aI0
aI0
aI0
aI0
aI0
aI0
aI0
aI0
aI0
aI0
aI0
aI0
aI0
aI0
aI0
aI0
aI0
aI0
aI0
aI0
aI0
aI0
aI0
aI0
aI0
aI0
aI0
aI0
aI0
aI0
aI0
aI0
aI0
asg17
S'14'
p120
sg19
g90
sbsg21
I10
sg10
I01
sba(irbf_neuron
RbfNeuron
p121
(dp122
g8
I00
sg21
I24
sg10
I00
sba(irbf_neuron
RbfNeuron
p123
(dp124
g8
I00
sg21
I24
sg10
I00
sba(irbf_neuron
RbfNeuron
p125
(dp126
g8
I00
sg21
I24
sg10
I00
sba(irbf_neuron
RbfNeuron
p127
(dp128
g8
I00
sg21
I24
sg10
I00
sba(irbf_neuron
RbfNeuron
p129
(dp130
g8
I00
sg21
I24
sg10
I00
sba(irbf_neuron
RbfNeuron
p131
(dp132
g8
I00
sg21
I24
sg10
I00
sba(irbf_neuron
RbfNeuron
p133
(dp134
g8
I00
sg21
I24
sg10
I00
sba(irbf_neuron
RbfNeuron
p135
(dp136
g8
I00
sg21
I24
sg10
I00
sba(irbf_neuron
RbfNeuron
p137
(dp138
g8
I00
sg21
I24
sg10
I00
sba(irbf_neuron
RbfNeuron
p139
(dp140
g8
I00
sg21
I24
sg10
I00
sba(irbf_neuron
RbfNeuron
p141
(dp142
g8
I00
sg21
I24
sg10
I00
sba(irbf_neuron
RbfNeuron
p143
(dp144
g8
I00
sg21
I24
sg10
I00
sba(irbf_neuron
RbfNeuron
p145
(dp146
g8
I00
sg21
I24
sg10
I00
sba(irbf_neuron
RbfNeuron
p147
(dp148
g8
I00
sg21
I24
sg10
I00
sba(irbf_neuron
RbfNeuron
p149
(dp150
g8
I00
sg21
I24
sg10
I00
sba(irbf_neuron
RbfNeuron
p151
(dp152
g8
I00
sg21
I24
sg10
I00
sba(irbf_neuron
RbfNeuron
p153
(dp154
g8
I00
sg21
I24
sg10
I00
sba(irbf_neuron
RbfNeuron
p155
(dp156
g8
I00
sg21
I24
sg10
I00
sba(irbf_neuron
RbfNeuron
p157
(dp158
g8
I00
sg21
I24
sg10
I00
sba(irbf_neuron
RbfNeuron
p159
(dp160
g8
I00
sg21
I24
sg10
I00
sba(irbf_neuron
RbfNeuron
p161
(dp162
g8
I00
sg21
I24
sg10
I00
sba(irbf_neuron
RbfNeuron
p163
(dp164
g8
I00
sg21
I24
sg10
I00
sba(irbf_neuron
RbfNeuron
p165
(dp166
g8
I00
sg21
I24
sg10
I00
sba(irbf_neuron
RbfNeuron
p167
(dp168
g8
I00
sg21
I24
sg10
I00
sba(irbf_neuron
RbfNeuron
p169
(dp170
g8
I00
sg21
I24
sg10
I00
sba(irbf_neuron
RbfNeuron
p171
(dp172
g8
I00
sg21
I24
sg10
I00
sba(irbf_neuron
RbfNeuron
p173
(dp174
g8
I00
sg21
I24
sg10
I00
sba(irbf_neuron
RbfNeuron
p175
(dp176
g8
I00
sg21
I24
sg10
I00
sba(irbf_neuron
RbfNeuron
p177
(dp178
g8
I00
sg21
I24
sg10
I00
sba(irbf_neuron
RbfNeuron
p179
(dp180
g8
I00
sg21
I24
sg10
I00
sba(irbf_neuron
RbfNeuron
p181
(dp182
g8
I00
sg21
I24
sg10
I00
sba(irbf_neuron
RbfNeuron
p183
(dp184
g8
I00
sg21
I24
sg10
I00
sba(irbf_neuron
RbfNeuron
p185
(dp186
g8
I00
sg21
I24
sg10
I00
sba(irbf_neuron
RbfNeuron
p187
(dp188
g8
I00
sg21
I24
sg10
I00
sba(irbf_neuron
RbfNeuron
p189
(dp190
g8
I00
sg21
I24
sg10
I00
sba(irbf_neuron
RbfNeuron
p191
(dp192
g8
I00
sg21
I24
sg10
I00
sba(irbf_neuron
RbfNeuron
p193
(dp194
g8
I00
sg21
I24
sg10
I00
sba(irbf_neuron
RbfNeuron
p195
(dp196
g8
I00
sg21
I24
sg10
I00
sba(irbf_neuron
RbfNeuron
p197
(dp198
g8
I00
sg21
I24
sg10
I00
sba(irbf_neuron
RbfNeuron
p199
(dp200
g8
I00
sg21
I24
sg10
I00
sba(irbf_neuron
RbfNeuron
p201
(dp202
g8
I00
sg21
I24
sg10
I00
sba(irbf_neuron
RbfNeuron
p203
(dp204
g8
I00
sg21
I24
sg10
I00
sba(irbf_neuron
RbfNeuron
p205
(dp206
g8
I00
sg21
I24
sg10
I00
sba(irbf_neuron
RbfNeuron
p207
(dp208
g8
I00
sg21
I24
sg10
I00
sba(irbf_neuron
RbfNeuron
p209
(dp210
g8
I00
sg21
I24
sg10
I00
sba(irbf_neuron
RbfNeuron
p211
(dp212
g8
I00
sg21
I24
sg10
I00
sba(irbf_neuron
RbfNeuron
p213
(dp214
g8
I00
sg21
I24
sg10
I00
sba(irbf_neuron
RbfNeuron
p215
(dp216
g8
I00
sg21
I24
sg10
I00
sba(irbf_neuron
RbfNeuron
p217
(dp218
g8
I00
sg21
I24
sg10
I00
sba(irbf_neuron
RbfNeuron
p219
(dp220
g8
I00
sg21
I24
sg10
I00
sba(irbf_neuron
RbfNeuron
p221
(dp222
g8
I00
sg21
I24
sg10
I00
sba(irbf_neuron
RbfNeuron
p223
(dp224
g8
I00
sg21
I24
sg10
I00
sba(irbf_neuron
RbfNeuron
p225
(dp226
g8
I00
sg21
I24
sg10
I00
sba(irbf_neuron
RbfNeuron
p227
(dp228
g8
I00
sg21
I24
sg10
I00
sba(irbf_neuron
RbfNeuron
p229
(dp230
g8
I00
sg21
I24
sg10
I00
sba(irbf_neuron
RbfNeuron
p231
(dp232
g8
I00
sg21
I24
sg10
I00
sba(irbf_neuron
RbfNeuron
p233
(dp234
g8
I00
sg21
I24
sg10
I00
sba(irbf_neuron
RbfNeuron
p235
(dp236
g8
I00
sg21
I24
sg10
I00
sba(irbf_neuron
RbfNeuron
p237
(dp238
g8
I00
sg21
I24
sg10
I00
sba(irbf_neuron
RbfNeuron
p239
(dp240
g8
I00
sg21
I24
sg10
I00
sba(irbf_neuron
RbfNeuron
p241
(dp242
g8
I00
sg21
I24
sg10
I00
sba(irbf_neuron
RbfNeuron
p243
(dp244
g8
I00
sg21
I24
sg10
I00
sba(irbf_neuron
RbfNeuron
p245
(dp246
g8
I00
sg21
I24
sg10
I00
sba(irbf_neuron
RbfNeuron
p247
(dp248
g8
I00
sg21
I24
sg10
I00
sba(irbf_neuron
RbfNeuron
p249
(dp250
g8
I00
sg21
I24
sg10
I00
sba(irbf_neuron
RbfNeuron
p251
(dp252
g8
I00
sg21
I24
sg10
I00
sba(irbf_neuron
RbfNeuron
p253
(dp254
g8
I00
sg21
I24
sg10
I00
sba(irbf_neuron
RbfNeuron
p255
(dp256
g8
I00
sg21
I24
sg10
I00
sba(irbf_neuron
RbfNeuron
p257
(dp258
g8
I00
sg21
I24
sg10
I00
sba(irbf_neuron
RbfNeuron
p259
(dp260
g8
I00
sg21
I24
sg10
I00
sba(irbf_neuron
RbfNeuron
p261
(dp262
g8
I00
sg21
I24
sg10
I00
sba(irbf_neuron
RbfNeuron
p263
(dp264
g8
I00
sg21
I24
sg10
I00
sba(irbf_neuron
RbfNeuron
p265
(dp266
g8
I00
sg21
I24
sg10
I00
sba(irbf_neuron
RbfNeuron
p267
(dp268
g8
I00
sg21
I24
sg10
I00
sba(irbf_neuron
RbfNeuron
p269
(dp270
g8
I00
sg21
I24
sg10
I00
sba(irbf_neuron
RbfNeuron
p271
(dp272
g8
I00
sg21
I24
sg10
I00
sba(irbf_neuron
RbfNeuron
p273
(dp274
g8
I00
sg21
I24
sg10
I00
sba(irbf_neuron
RbfNeuron
p275
(dp276
g8
I00
sg21
I24
sg10
I00
sba(irbf_neuron
RbfNeuron
p277
(dp278
g8
I00
sg21
I24
sg10
I00
sba(irbf_neuron
RbfNeuron
p279
(dp280
g8
I00
sg21
I24
sg10
I00
sba(irbf_neuron
RbfNeuron
p281
(dp282
g8
I00
sg21
I24
sg10
I00
sba(irbf_neuron
RbfNeuron
p283
(dp284
g8
I00
sg21
I24
sg10
I00
sba(irbf_neuron
RbfNeuron
p285
(dp286
g8
I00
sg21
I24
sg10
I00
sbasS'_index_recognize'
p287
(lp288
sS'_index_ready_to_learn'
p289
I17
sS'_last_learned_id'
p290
I16
sb.