(irbf_network
RbfNetwork
p0
(dp1
S'_state'
p2
S'HIT'
p3
sS'neuron_list'
p4
(lp5
(irbf_neuron
RbfNeuron
p6
(dp7
S'_degraded'
p8
I00
sS'_hit'
p9
I00
sS'_has_knowledge'
p10
I01
sS'_distance'
p11
F37.0
sS'_knowledge'
p12
(irbf_knowledge
RbfKnowledge
p13
(dp14
S'_pattern'
p15
(lp16
I0
aI8
aI3
aI0
aI0
aI0
aI1
aI0
aI0
aI0
aI1
aI0
aI0
aI0
aI1
aI0
aI0
aI0
aI1
aI0
aI0
aI0
aI3
aI0
aI0
aI0
aI1
aI0
aI0
aI0
aI0
aI0
aI0
aI0
aI0
aI0
aI0
aI0
aI0
aI0
aI0
aI0
aI0
aI0
aI0
aI0
aI0
aI0
aI0
aI0
aI0
aI0
aI0
aI0
aI0
aI0
aI0
aI0
aI0
aI0
aI0
aI0
aI0
aI0
asS'_class'
p17
S'0'
p18
sS'_set'
p19
S'NoSet'
p20
sbsS'_radius'
p21
I10
sba(irbf_neuron
RbfNeuron
p22
(dp23
g8
I00
sg9
I00
sg10
I01
sg11
F35.0
sg12
(irbf_knowledge
RbfKnowledge
p24
(dp25
g15
(lp26
I0
aI0
aI1
aI0
aI0
aI8
aI3
aI0
aI0
aI0
aI1
aI0
aI0
aI0
aI0
aI0
aI0
aI0
aI0
aI0
aI0
aI0
aI0
aI0
aI0
aI0
aI0
aI0
aI0
aI0
aI0
aI0
aI0
aI0
aI0
aI0
aI0
aI0
aI0
aI0
aI0
aI0
aI0
aI0
aI0
aI0
aI0
aI0
aI0
aI0
aI0
aI0
aI0
aI0
aI0
aI0
aI0
aI0
aI0
aI0
aI0
aI0
aI0
aI0
asg17
S'1'
p27
sg19
g20
sbsg21
I10
sba(irbf_neuron
RbfNeuron
p28
(dp29
g8
I00
sg9
I00
sg10
I01
sg11
F26.0
sg12
(irbf_knowledge
RbfKnowledge
p30
(dp31
g15
(lp32
I0
aI8
aI3
aI0
aI0
aI0
aI0
aI0
aI0
aI8
aI3
aI0
aI0
aI0
aI0
aI0
aI0
aI0
aI0
aI0
aI0
aI0
aI0
aI0
aI0
aI0
aI0
aI0
aI0
aI0
aI0
aI0
aI0
aI0
aI0
aI0
aI0
aI0
aI0
aI0
aI0
aI0
aI0
aI0
aI0
aI0
aI0
aI0
aI0
aI0
aI0
aI0
aI0
aI0
aI0
aI0
aI0
aI0
aI0
aI0
aI0
aI0
aI0
aI0
asg17
S'2'
p33
sg19
g20
sbsg21
I10
sba(irbf_neuron
RbfNeuron
p34
(dp35
g8
I00
sg9
I00
sg10
I01
sg11
F27.0
sg12
(irbf_knowledge
RbfKnowledge
p36
(dp37
g15
(lp38
I0
aI8
aI3
aI0
aI0
aI0
aI2
aI0
aI0
aI8
aI3
aI0
aI0
aI8
aI0
aI0
aI0
aI8
aI3
aI0
aI0
aI0
aI0
aI0
aI0
aI0
aI0
aI0
aI0
aI0
aI0
aI0
aI0
aI0
aI0
aI0
aI0
aI0
aI0
aI0
aI0
aI0
aI0
aI0
aI0
aI0
aI0
aI0
aI0
aI0
aI0
aI0
aI0
aI0
aI0
aI0
aI0
aI0
aI0
aI0
aI0
aI0
aI0
aI0
asg17
S'3'
p39
sg19
g20
sbsg21
I10
sba(irbf_neuron
RbfNeuron
p40
(dp41
g8
I00
sg9
I00
sg10
I01
sg11
F21.0
sg12
(irbf_knowledge
RbfKnowledge
p42
(dp43
g15
(lp44
I0
aI8
aI3
aI0
aI0
aI8
aI0
aI0
aI0
aI8
aI3
aI0
aI0
aI8
aI0
aI0
aI0
aI8
aI3
aI0
aI0
aI0
aI0
aI0
aI0
aI0
aI0
aI0
aI0
aI0
aI0
aI0
aI0
aI0
aI0
aI0
aI0
aI0
aI0
aI0
aI0
aI0
aI0
aI0
aI0
aI0
aI0
aI0
aI0
aI0
aI0
aI0
aI0
aI0
aI0
aI0
aI0
aI0
aI0
aI0
aI0
aI0
aI0
aI0
asg17
S'4'
p45
sg19
S'NoSet'
p46
sbsg21
I10
sba(irbf_neuron
RbfNeuron
p47
(dp48
g8
I00
sg9
I01
sg10
I01
sg11
F0.0
sg12
(irbf_knowledge
RbfKnowledge
p49
(dp50
g15
(lp51
I0
aI12
aI3
aI0
aI0
aI8
aI2
aI0
aI0
aI8
aI2
aI0
aI0
aI8
aI3
aI0
aI0
aI0
aI0
aI0
aI0
aI0
aI0
aI0
aI0
aI0
aI0
aI0
aI0
aI0
aI0
aI0
aI0
aI0
aI0
aI0
aI0
aI0
aI0
aI0
aI0
aI0
aI0
aI0
aI0
aI0
aI0
aI0
aI0
aI0
aI0
aI0
aI0
aI0
aI0
aI0
aI0
aI0
aI0
aI0
aI0
aI0
aI0
aI0
asg17
S'5'
p52
sg19
g46
sbsg21
I10
sba(irbf_neuron
RbfNeuron
p53
(dp54
g8
I00
sg9
I00
sg10
I01
sg11
F44.0
sg12
(irbf_knowledge
RbfKnowledge
p55
(dp56
g15
(lp57
I0
aI0
aI2
aI0
aI0
aI0
aI2
aI0
aI0
aI8
aI3
aI0
aI0
aI8
aI2
aI0
aI0
aI8
aI2
aI0
aI0
aI8
aI3
aI0
aI0
aI0
aI0
aI0
aI0
aI0
aI0
aI0
aI0
aI0
aI0
aI0
aI0
aI0
aI0
aI0
aI0
aI0
aI0
aI0
aI0
aI0
aI0
aI0
aI0
aI0
aI0
aI0
aI0
aI0
aI0
aI0
aI0
aI0
aI0
aI0
aI0
aI0
aI0
aI0
asg17
S'6'
p58
sg19
g46
sbsg21
I10
sba(irbf_neuron
RbfNeuron
p59
(dp60
g8
I00
sg9
I00
sg10
I01
sg11
F46.0
sg12
(irbf_knowledge
RbfKnowledge
p61
(dp62
g15
(lp63
I0
aI12
aI3
aI2
aI0
aI8
aI2
aI2
aI0
aI8
aI10
aI3
aI0
aI8
aI11
aI2
aI0
aI0
aI8
aI2
aI0
aI0
aI8
aI3
aI0
aI0
aI0
aI0
aI0
aI0
aI0
aI0
aI0
aI0
aI0
aI0
aI0
aI0
aI0
aI0
aI0
aI0
aI0
aI0
aI0
aI0
aI0
aI0
aI0
aI0
aI0
aI0
aI0
aI0
aI0
aI0
aI0
aI0
aI0
aI0
aI0
aI0
aI0
aI0
asg17
S'syll_0'
p64
sg19
g46
sbsg21
I10
sba(irbf_neuron
RbfNeuron
p65
(dp66
g8
I00
sg21
I24
sg10
I00
sba(irbf_neuron
RbfNeuron
p67
(dp68
g8
I00
sg21
I24
sg10
I00
sba(irbf_neuron
RbfNeuron
p69
(dp70
g8
I00
sg21
I24
sg10
I00
sba(irbf_neuron
RbfNeuron
p71
(dp72
g8
I00
sg21
I24
sg10
I00
sba(irbf_neuron
RbfNeuron
p73
(dp74
g8
I00
sg21
I24
sg10
I00
sba(irbf_neuron
RbfNeuron
p75
(dp76
g8
I00
sg21
I24
sg10
I00
sba(irbf_neuron
RbfNeuron
p77
(dp78
g8
I00
sg21
I24
sg10
I00
sba(irbf_neuron
RbfNeuron
p79
(dp80
g8
I00
sg21
I24
sg10
I00
sba(irbf_neuron
RbfNeuron
p81
(dp82
g8
I00
sg21
I24
sg10
I00
sba(irbf_neuron
RbfNeuron
p83
(dp84
g8
I00
sg21
I24
sg10
I00
sba(irbf_neuron
RbfNeuron
p85
(dp86
g8
I00
sg21
I24
sg10
I00
sba(irbf_neuron
RbfNeuron
p87
(dp88
g8
I00
sg21
I24
sg10
I00
sba(irbf_neuron
RbfNeuron
p89
(dp90
g8
I00
sg21
I24
sg10
I00
sba(irbf_neuron
RbfNeuron
p91
(dp92
g8
I00
sg21
I24
sg10
I00
sba(irbf_neuron
RbfNeuron
p93
(dp94
g8
I00
sg21
I24
sg10
I00
sba(irbf_neuron
RbfNeuron
p95
(dp96
g8
I00
sg21
I24
sg10
I00
sba(irbf_neuron
RbfNeuron
p97
(dp98
g8
I00
sg21
I24
sg10
I00
sba(irbf_neuron
RbfNeuron
p99
(dp100
g8
I00
sg21
I24
sg10
I00
sba(irbf_neuron
RbfNeuron
p101
(dp102
g8
I00
sg21
I24
sg10
I00
sba(irbf_neuron
RbfNeuron
p103
(dp104
g8
I00
sg21
I24
sg10
I00
sba(irbf_neuron
RbfNeuron
p105
(dp106
g8
I00
sg21
I24
sg10
I00
sba(irbf_neuron
RbfNeuron
p107
(dp108
g8
I00
sg21
I24
sg10
I00
sba(irbf_neuron
RbfNeuron
p109
(dp110
g8
I00
sg21
I24
sg10
I00
sba(irbf_neuron
RbfNeuron
p111
(dp112
g8
I00
sg21
I24
sg10
I00
sba(irbf_neuron
RbfNeuron
p113
(dp114
g8
I00
sg21
I24
sg10
I00
sba(irbf_neuron
RbfNeuron
p115
(dp116
g8
I00
sg21
I24
sg10
I00
sba(irbf_neuron
RbfNeuron
p117
(dp118
g8
I00
sg21
I24
sg10
I00
sba(irbf_neuron
RbfNeuron
p119
(dp120
g8
I00
sg21
I24
sg10
I00
sba(irbf_neuron
RbfNeuron
p121
(dp122
g8
I00
sg21
I24
sg10
I00
sba(irbf_neuron
RbfNeuron
p123
(dp124
g8
I00
sg21
I24
sg10
I00
sba(irbf_neuron
RbfNeuron
p125
(dp126
g8
I00
sg21
I24
sg10
I00
sba(irbf_neuron
RbfNeuron
p127
(dp128
g8
I00
sg21
I24
sg10
I00
sba(irbf_neuron
RbfNeuron
p129
(dp130
g8
I00
sg21
I24
sg10
I00
sba(irbf_neuron
RbfNeuron
p131
(dp132
g8
I00
sg21
I24
sg10
I00
sba(irbf_neuron
RbfNeuron
p133
(dp134
g8
I00
sg21
I24
sg10
I00
sba(irbf_neuron
RbfNeuron
p135
(dp136
g8
I00
sg21
I24
sg10
I00
sba(irbf_neuron
RbfNeuron
p137
(dp138
g8
I00
sg21
I24
sg10
I00
sba(irbf_neuron
RbfNeuron
p139
(dp140
g8
I00
sg21
I24
sg10
I00
sba(irbf_neuron
RbfNeuron
p141
(dp142
g8
I00
sg21
I24
sg10
I00
sba(irbf_neuron
RbfNeuron
p143
(dp144
g8
I00
sg21
I24
sg10
I00
sba(irbf_neuron
RbfNeuron
p145
(dp146
g8
I00
sg21
I24
sg10
I00
sba(irbf_neuron
RbfNeuron
p147
(dp148
g8
I00
sg21
I24
sg10
I00
sba(irbf_neuron
RbfNeuron
p149
(dp150
g8
I00
sg21
I24
sg10
I00
sba(irbf_neuron
RbfNeuron
p151
(dp152
g8
I00
sg21
I24
sg10
I00
sba(irbf_neuron
RbfNeuron
p153
(dp154
g8
I00
sg21
I24
sg10
I00
sba(irbf_neuron
RbfNeuron
p155
(dp156
g8
I00
sg21
I24
sg10
I00
sba(irbf_neuron
RbfNeuron
p157
(dp158
g8
I00
sg21
I24
sg10
I00
sba(irbf_neuron
RbfNeuron
p159
(dp160
g8
I00
sg21
I24
sg10
I00
sba(irbf_neuron
RbfNeuron
p161
(dp162
g8
I00
sg21
I24
sg10
I00
sba(irbf_neuron
RbfNeuron
p163
(dp164
g8
I00
sg21
I24
sg10
I00
sba(irbf_neuron
RbfNeuron
p165
(dp166
g8
I00
sg21
I24
sg10
I00
sba(irbf_neuron
RbfNeuron
p167
(dp168
g8
I00
sg21
I24
sg10
I00
sba(irbf_neuron
RbfNeuron
p169
(dp170
g8
I00
sg21
I24
sg10
I00
sba(irbf_neuron
RbfNeuron
p171
(dp172
g8
I00
sg21
I24
sg10
I00
sba(irbf_neuron
RbfNeuron
p173
(dp174
g8
I00
sg21
I24
sg10
I00
sba(irbf_neuron
RbfNeuron
p175
(dp176
g8
I00
sg21
I24
sg10
I00
sba(irbf_neuron
RbfNeuron
p177
(dp178
g8
I00
sg21
I24
sg10
I00
sba(irbf_neuron
RbfNeuron
p179
(dp180
g8
I00
sg21
I24
sg10
I00
sba(irbf_neuron
RbfNeuron
p181
(dp182
g8
I00
sg21
I24
sg10
I00
sba(irbf_neuron
RbfNeuron
p183
(dp184
g8
I00
sg21
I24
sg10
I00
sba(irbf_neuron
RbfNeuron
p185
(dp186
g8
I00
sg21
I24
sg10
I00
sba(irbf_neuron
RbfNeuron
p187
(dp188
g8
I00
sg21
I24
sg10
I00
sba(irbf_neuron
RbfNeuron
p189
(dp190
g8
I00
sg21
I24
sg10
I00
sba(irbf_neuron
RbfNeuron
p191
(dp192
g8
I00
sg21
I24
sg10
I00
sba(irbf_neuron
RbfNeuron
p193
(dp194
g8
I00
sg21
I24
sg10
I00
sba(irbf_neuron
RbfNeuron
p195
(dp196
g8
I00
sg21
I24
sg10
I00
sba(irbf_neuron
RbfNeuron
p197
(dp198
g8
I00
sg21
I24
sg10
I00
sba(irbf_neuron
RbfNeuron
p199
(dp200
g8
I00
sg21
I24
sg10
I00
sba(irbf_neuron
RbfNeuron
p201
(dp202
g8
I00
sg21
I24
sg10
I00
sba(irbf_neuron
RbfNeuron
p203
(dp204
g8
I00
sg21
I24
sg10
I00
sba(irbf_neuron
RbfNeuron
p205
(dp206
g8
I00
sg21
I24
sg10
I00
sba(irbf_neuron
RbfNeuron
p207
(dp208
g8
I00
sg21
I24
sg10
I00
sba(irbf_neuron
RbfNeuron
p209
(dp210
g8
I00
sg21
I24
sg10
I00
sba(irbf_neuron
RbfNeuron
p211
(dp212
g8
I00
sg21
I24
sg10
I00
sba(irbf_neuron
RbfNeuron
p213
(dp214
g8
I00
sg21
I24
sg10
I00
sba(irbf_neuron
RbfNeuron
p215
(dp216
g8
I00
sg21
I24
sg10
I00
sba(irbf_neuron
RbfNeuron
p217
(dp218
g8
I00
sg21
I24
sg10
I00
sba(irbf_neuron
RbfNeuron
p219
(dp220
g8
I00
sg21
I24
sg10
I00
sba(irbf_neuron
RbfNeuron
p221
(dp222
g8
I00
sg21
I24
sg10
I00
sba(irbf_neuron
RbfNeuron
p223
(dp224
g8
I00
sg21
I24
sg10
I00
sba(irbf_neuron
RbfNeuron
p225
(dp226
g8
I00
sg21
I24
sg10
I00
sba(irbf_neuron
RbfNeuron
p227
(dp228
g8
I00
sg21
I24
sg10
I00
sba(irbf_neuron
RbfNeuron
p229
(dp230
g8
I00
sg21
I24
sg10
I00
sba(irbf_neuron
RbfNeuron
p231
(dp232
g8
I00
sg21
I24
sg10
I00
sba(irbf_neuron
RbfNeuron
p233
(dp234
g8
I00
sg21
I24
sg10
I00
sba(irbf_neuron
RbfNeuron
p235
(dp236
g8
I00
sg21
I24
sg10
I00
sba(irbf_neuron
RbfNeuron
p237
(dp238
g8
I00
sg21
I24
sg10
I00
sba(irbf_neuron
RbfNeuron
p239
(dp240
g8
I00
sg21
I24
sg10
I00
sba(irbf_neuron
RbfNeuron
p241
(dp242
g8
I00
sg21
I24
sg10
I00
sba(irbf_neuron
RbfNeuron
p243
(dp244
g8
I00
sg21
I24
sg10
I00
sba(irbf_neuron
RbfNeuron
p245
(dp246
g8
I00
sg21
I24
sg10
I00
sba(irbf_neuron
RbfNeuron
p247
(dp248
g8
I00
sg21
I24
sg10
I00
sbasS'_index_recognize'
p249
(lp250
I5
asS'_index_ready_to_learn'
p251
I8
sS'_last_learned_id'
p252
I7
sb.