(irbf_network
RbfNetwork
p0
(dp1
S'_state'
p2
S'MISS'
p3
sS'neuron_list'
p4
(lp5
ccopy_reg
_reconstructor
p6
(crbf_network
RbfNeuron
p7
c__builtin__
object
p8
Ntp9
Rp10
(dp11
S'_degraded'
p12
I00
sS'_knowledge'
p13
(irbf_network
RbfKnowledge
p14
(dp15
S'_pattern'
p16
(lp17
I0
aI8
aI3
aI0
aI0
aI0
aI1
aI0
aI0
aI0
aI1
aI0
aI0
aI0
aI1
aI0
aI0
aI0
aI1
aI0
aI0
aI0
aI3
aI0
aI0
aI0
aI1
aI0
aI0
aI0
aI0
aI0
aI0
aI0
aI0
aI0
aI0
aI0
aI0
aI0
aI0
aI0
aI0
aI0
aI0
aI0
aI0
aI0
aI0
aI0
aI0
aI0
aI0
aI0
aI0
aI0
aI0
aI0
aI0
aI0
aI0
aI0
aI0
aI0
asS'_class'
p18
S'0'
p19
sS'_set'
p20
S'NoSet'
p21
sbsS'_radius'
p22
I10
sS'_has_knowledge'
p23
I01
sbag6
(g7
g8
Ntp24
Rp25
(dp26
g12
I00
sg13
Nsg22
I24
sg23
I00
sbag6
(g7
g8
Ntp27
Rp28
(dp29
g12
I00
sg13
Nsg22
I24
sg23
I00
sbag6
(g7
g8
Ntp30
Rp31
(dp32
g12
I00
sg13
Nsg22
I24
sg23
I00
sbag6
(g7
g8
Ntp33
Rp34
(dp35
g12
I00
sg13
Nsg22
I24
sg23
I00
sbag6
(g7
g8
Ntp36
Rp37
(dp38
g12
I00
sg13
Nsg22
I24
sg23
I00
sbag6
(g7
g8
Ntp39
Rp40
(dp41
g12
I00
sg13
Nsg22
I24
sg23
I00
sbag6
(g7
g8
Ntp42
Rp43
(dp44
g12
I00
sg13
Nsg22
I24
sg23
I00
sbag6
(g7
g8
Ntp45
Rp46
(dp47
g12
I00
sg13
Nsg22
I24
sg23
I00
sbag6
(g7
g8
Ntp48
Rp49
(dp50
g12
I00
sg13
Nsg22
I24
sg23
I00
sbag6
(g7
g8
Ntp51
Rp52
(dp53
g12
I00
sg13
Nsg22
I24
sg23
I00
sbag6
(g7
g8
Ntp54
Rp55
(dp56
g12
I00
sg13
Nsg22
I24
sg23
I00
sbag6
(g7
g8
Ntp57
Rp58
(dp59
g12
I00
sg13
Nsg22
I24
sg23
I00
sbag6
(g7
g8
Ntp60
Rp61
(dp62
g12
I00
sg13
Nsg22
I24
sg23
I00
sbag6
(g7
g8
Ntp63
Rp64
(dp65
g12
I00
sg13
Nsg22
I24
sg23
I00
sbag6
(g7
g8
Ntp66
Rp67
(dp68
g12
I00
sg13
Nsg22
I24
sg23
I00
sbag6
(g7
g8
Ntp69
Rp70
(dp71
g12
I00
sg13
Nsg22
I24
sg23
I00
sbag6
(g7
g8
Ntp72
Rp73
(dp74
g12
I00
sg13
Nsg22
I24
sg23
I00
sbag6
(g7
g8
Ntp75
Rp76
(dp77
g12
I00
sg13
Nsg22
I24
sg23
I00
sbag6
(g7
g8
Ntp78
Rp79
(dp80
g12
I00
sg13
Nsg22
I24
sg23
I00
sbag6
(g7
g8
Ntp81
Rp82
(dp83
g12
I00
sg13
Nsg22
I24
sg23
I00
sbag6
(g7
g8
Ntp84
Rp85
(dp86
g12
I00
sg13
Nsg22
I24
sg23
I00
sbag6
(g7
g8
Ntp87
Rp88
(dp89
g12
I00
sg13
Nsg22
I24
sg23
I00
sbag6
(g7
g8
Ntp90
Rp91
(dp92
g12
I00
sg13
Nsg22
I24
sg23
I00
sbag6
(g7
g8
Ntp93
Rp94
(dp95
g12
I00
sg13
Nsg22
I24
sg23
I00
sbag6
(g7
g8
Ntp96
Rp97
(dp98
g12
I00
sg13
Nsg22
I24
sg23
I00
sbag6
(g7
g8
Ntp99
Rp100
(dp101
g12
I00
sg13
Nsg22
I24
sg23
I00
sbag6
(g7
g8
Ntp102
Rp103
(dp104
g12
I00
sg13
Nsg22
I24
sg23
I00
sbag6
(g7
g8
Ntp105
Rp106
(dp107
g12
I00
sg13
Nsg22
I24
sg23
I00
sbag6
(g7
g8
Ntp108
Rp109
(dp110
g12
I00
sg13
Nsg22
I24
sg23
I00
sbag6
(g7
g8
Ntp111
Rp112
(dp113
g12
I00
sg13
Nsg22
I24
sg23
I00
sbag6
(g7
g8
Ntp114
Rp115
(dp116
g12
I00
sg13
Nsg22
I24
sg23
I00
sbag6
(g7
g8
Ntp117
Rp118
(dp119
g12
I00
sg13
Nsg22
I24
sg23
I00
sbag6
(g7
g8
Ntp120
Rp121
(dp122
g12
I00
sg13
Nsg22
I24
sg23
I00
sbag6
(g7
g8
Ntp123
Rp124
(dp125
g12
I00
sg13
Nsg22
I24
sg23
I00
sbag6
(g7
g8
Ntp126
Rp127
(dp128
g12
I00
sg13
Nsg22
I24
sg23
I00
sbag6
(g7
g8
Ntp129
Rp130
(dp131
g12
I00
sg13
Nsg22
I24
sg23
I00
sbag6
(g7
g8
Ntp132
Rp133
(dp134
g12
I00
sg13
Nsg22
I24
sg23
I00
sbag6
(g7
g8
Ntp135
Rp136
(dp137
g12
I00
sg13
Nsg22
I24
sg23
I00
sbag6
(g7
g8
Ntp138
Rp139
(dp140
g12
I00
sg13
Nsg22
I24
sg23
I00
sbag6
(g7
g8
Ntp141
Rp142
(dp143
g12
I00
sg13
Nsg22
I24
sg23
I00
sbag6
(g7
g8
Ntp144
Rp145
(dp146
g12
I00
sg13
Nsg22
I24
sg23
I00
sbag6
(g7
g8
Ntp147
Rp148
(dp149
g12
I00
sg13
Nsg22
I24
sg23
I00
sbag6
(g7
g8
Ntp150
Rp151
(dp152
g12
I00
sg13
Nsg22
I24
sg23
I00
sbag6
(g7
g8
Ntp153
Rp154
(dp155
g12
I00
sg13
Nsg22
I24
sg23
I00
sbag6
(g7
g8
Ntp156
Rp157
(dp158
g12
I00
sg13
Nsg22
I24
sg23
I00
sbag6
(g7
g8
Ntp159
Rp160
(dp161
g12
I00
sg13
Nsg22
I24
sg23
I00
sbag6
(g7
g8
Ntp162
Rp163
(dp164
g12
I00
sg13
Nsg22
I24
sg23
I00
sbag6
(g7
g8
Ntp165
Rp166
(dp167
g12
I00
sg13
Nsg22
I24
sg23
I00
sbag6
(g7
g8
Ntp168
Rp169
(dp170
g12
I00
sg13
Nsg22
I24
sg23
I00
sbag6
(g7
g8
Ntp171
Rp172
(dp173
g12
I00
sg13
Nsg22
I24
sg23
I00
sbag6
(g7
g8
Ntp174
Rp175
(dp176
g12
I00
sg13
Nsg22
I24
sg23
I00
sbag6
(g7
g8
Ntp177
Rp178
(dp179
g12
I00
sg13
Nsg22
I24
sg23
I00
sbag6
(g7
g8
Ntp180
Rp181
(dp182
g12
I00
sg13
Nsg22
I24
sg23
I00
sbag6
(g7
g8
Ntp183
Rp184
(dp185
g12
I00
sg13
Nsg22
I24
sg23
I00
sbag6
(g7
g8
Ntp186
Rp187
(dp188
g12
I00
sg13
Nsg22
I24
sg23
I00
sbag6
(g7
g8
Ntp189
Rp190
(dp191
g12
I00
sg13
Nsg22
I24
sg23
I00
sbag6
(g7
g8
Ntp192
Rp193
(dp194
g12
I00
sg13
Nsg22
I24
sg23
I00
sbag6
(g7
g8
Ntp195
Rp196
(dp197
g12
I00
sg13
Nsg22
I24
sg23
I00
sbag6
(g7
g8
Ntp198
Rp199
(dp200
g12
I00
sg13
Nsg22
I24
sg23
I00
sbag6
(g7
g8
Ntp201
Rp202
(dp203
g12
I00
sg13
Nsg22
I24
sg23
I00
sbag6
(g7
g8
Ntp204
Rp205
(dp206
g12
I00
sg13
Nsg22
I24
sg23
I00
sbag6
(g7
g8
Ntp207
Rp208
(dp209
g12
I00
sg13
Nsg22
I24
sg23
I00
sbag6
(g7
g8
Ntp210
Rp211
(dp212
g12
I00
sg13
Nsg22
I24
sg23
I00
sbag6
(g7
g8
Ntp213
Rp214
(dp215
g12
I00
sg13
Nsg22
I24
sg23
I00
sbag6
(g7
g8
Ntp216
Rp217
(dp218
g12
I00
sg13
Nsg22
I24
sg23
I00
sbag6
(g7
g8
Ntp219
Rp220
(dp221
g12
I00
sg13
Nsg22
I24
sg23
I00
sbag6
(g7
g8
Ntp222
Rp223
(dp224
g12
I00
sg13
Nsg22
I24
sg23
I00
sbag6
(g7
g8
Ntp225
Rp226
(dp227
g12
I00
sg13
Nsg22
I24
sg23
I00
sbag6
(g7
g8
Ntp228
Rp229
(dp230
g12
I00
sg13
Nsg22
I24
sg23
I00
sbag6
(g7
g8
Ntp231
Rp232
(dp233
g12
I00
sg13
Nsg22
I24
sg23
I00
sbag6
(g7
g8
Ntp234
Rp235
(dp236
g12
I00
sg13
Nsg22
I24
sg23
I00
sbag6
(g7
g8
Ntp237
Rp238
(dp239
g12
I00
sg13
Nsg22
I24
sg23
I00
sbag6
(g7
g8
Ntp240
Rp241
(dp242
g12
I00
sg13
Nsg22
I24
sg23
I00
sbag6
(g7
g8
Ntp243
Rp244
(dp245
g12
I00
sg13
Nsg22
I24
sg23
I00
sbag6
(g7
g8
Ntp246
Rp247
(dp248
g12
I00
sg13
Nsg22
I24
sg23
I00
sbag6
(g7
g8
Ntp249
Rp250
(dp251
g12
I00
sg13
Nsg22
I24
sg23
I00
sbag6
(g7
g8
Ntp252
Rp253
(dp254
g12
I00
sg13
Nsg22
I24
sg23
I00
sbag6
(g7
g8
Ntp255
Rp256
(dp257
g12
I00
sg13
Nsg22
I24
sg23
I00
sbag6
(g7
g8
Ntp258
Rp259
(dp260
g12
I00
sg13
Nsg22
I24
sg23
I00
sbag6
(g7
g8
Ntp261
Rp262
(dp263
g12
I00
sg13
Nsg22
I24
sg23
I00
sbag6
(g7
g8
Ntp264
Rp265
(dp266
g12
I00
sg13
Nsg22
I24
sg23
I00
sbag6
(g7
g8
Ntp267
Rp268
(dp269
g12
I00
sg13
Nsg22
I24
sg23
I00
sbag6
(g7
g8
Ntp270
Rp271
(dp272
g12
I00
sg13
Nsg22
I24
sg23
I00
sbag6
(g7
g8
Ntp273
Rp274
(dp275
g12
I00
sg13
Nsg22
I24
sg23
I00
sbag6
(g7
g8
Ntp276
Rp277
(dp278
g12
I00
sg13
Nsg22
I24
sg23
I00
sbag6
(g7
g8
Ntp279
Rp280
(dp281
g12
I00
sg13
Nsg22
I24
sg23
I00
sbag6
(g7
g8
Ntp282
Rp283
(dp284
g12
I00
sg13
Nsg22
I24
sg23
I00
sbag6
(g7
g8
Ntp285
Rp286
(dp287
g12
I00
sg13
Nsg22
I24
sg23
I00
sbag6
(g7
g8
Ntp288
Rp289
(dp290
g12
I00
sg13
Nsg22
I24
sg23
I00
sbag6
(g7
g8
Ntp291
Rp292
(dp293
g12
I00
sg13
Nsg22
I24
sg23
I00
sbag6
(g7
g8
Ntp294
Rp295
(dp296
g12
I00
sg13
Nsg22
I24
sg23
I00
sbag6
(g7
g8
Ntp297
Rp298
(dp299
g12
I00
sg13
Nsg22
I24
sg23
I00
sbag6
(g7
g8
Ntp300
Rp301
(dp302
g12
I00
sg13
Nsg22
I24
sg23
I00
sbag6
(g7
g8
Ntp303
Rp304
(dp305
g12
I00
sg13
Nsg22
I24
sg23
I00
sbag6
(g7
g8
Ntp306
Rp307
(dp308
g12
I00
sg13
Nsg22
I24
sg23
I00
sbag6
(g7
g8
Ntp309
Rp310
(dp311
g12
I00
sg13
Nsg22
I24
sg23
I00
sbag6
(g7
g8
Ntp312
Rp313
(dp314
g12
I00
sg13
Nsg22
I24
sg23
I00
sbag6
(g7
g8
Ntp315
Rp316
(dp317
g12
I00
sg13
Nsg22
I24
sg23
I00
sbag6
(g7
g8
Ntp318
Rp319
(dp320
g12
I00
sg13
Nsg22
I24
sg23
I00
sbasS'_index_recognize'
p321
(lp322
sS'_index_ready_to_learn'
p323
I1
sS'_last_learned_id'
p324
I0
sb.