(irbf_network
RbfNetwork
p0
(dp1
S'_state'
p2
S'HIT'
p3
sS'neuron_list'
p4
(lp5
(irbf_neuron
RbfNeuron
p6
(dp7
S'_degraded'
p8
I01
sS'_hit'
p9
I01
sS'_has_knowledge'
p10
I01
sS'_distance'
p11
F0.0
sS'_knowledge'
p12
(irbf_knowledge
RbfKnowledge
p13
(dp14
S'_pattern'
p15
(lp16
I0
aI12
aI3
aI0
aI0
aI8
aI2
aI0
aI0
aI8
aI2
aI0
aI0
aI8
aI3
aI0
aI0
aI0
aI0
aI0
aI0
aI0
aI0
aI0
aI0
aI0
aI0
aI0
aI0
aI0
aI0
aI0
aI0
aI0
aI0
aI0
aI0
aI0
aI0
aI0
aI0
aI0
aI0
aI0
aI0
aI0
aI0
aI0
aI0
aI0
aI0
aI0
aI0
aI0
aI0
aI0
aI0
aI0
aI0
aI0
aI0
aI0
aI0
aI0
asS'_class'
p17
S'0'
p18
sS'_set'
p19
S'NoSet'
p20
sbsS'_radius'
p21
F0.0
sba(irbf_neuron
RbfNeuron
p22
(dp23
g8
I00
sg9
I00
sg10
I01
sg11
F10.0
sg12
(irbf_knowledge
RbfKnowledge
p24
(dp25
g15
(lp26
I0
aI8
aI3
aI0
aI0
aI8
aI2
aI0
aI0
aI8
aI2
aI0
aI0
aI8
aI3
aI0
aI0
aI0
aI2
aI0
aI0
aI0
aI2
aI0
aI0
aI0
aI2
aI0
aI0
aI0
aI0
aI0
aI0
aI0
aI0
aI0
aI0
aI0
aI0
aI0
aI0
aI0
aI0
aI0
aI0
aI0
aI0
aI0
aI0
aI0
aI0
aI0
aI0
aI0
aI0
aI0
aI0
aI0
aI0
aI0
aI0
aI0
aI0
aI0
asg17
S'1'
p27
sg19
g20
sbsg21
I10
sba(irbf_neuron
RbfNeuron
p28
(dp29
g8
I00
sg9
I00
sg10
I01
sg11
F50.0
sg12
(irbf_knowledge
RbfKnowledge
p30
(dp31
g15
(lp32
I12
aI11
aI3
aI0
aI8
aI10
aI2
aI0
aI8
aI10
aI2
aI0
aI8
aI11
aI3
aI0
aI0
aI0
aI2
aI0
aI0
aI0
aI2
aI0
aI0
aI0
aI2
aI0
aI0
aI0
aI0
aI0
aI0
aI0
aI0
aI0
aI0
aI0
aI0
aI0
aI0
aI0
aI0
aI0
aI0
aI0
aI0
aI0
aI0
aI0
aI0
aI0
aI0
aI0
aI0
aI0
aI0
aI0
aI0
aI0
aI0
aI0
aI0
aI0
asg17
S'syll_0'
p33
sg19
g20
sbsg21
I10
sba(irbf_neuron
RbfNeuron
p34
(dp35
g8
I00
sg9
I00
sg10
I01
sg11
F20.0
sg12
(irbf_knowledge
RbfKnowledge
p36
(dp37
g15
(lp38
I0
aI8
aI3
aI0
aI0
aI0
aI2
aI0
aI0
aI0
aI2
aI0
aI0
aI8
aI3
aI0
aI0
aI0
aI0
aI0
aI0
aI0
aI0
aI0
aI0
aI0
aI0
aI0
aI0
aI0
aI0
aI0
aI0
aI0
aI0
aI0
aI0
aI0
aI0
aI0
aI0
aI0
aI0
aI0
aI0
aI0
aI0
aI0
aI0
aI0
aI0
aI0
aI0
aI0
aI0
aI0
aI0
aI0
aI0
aI0
aI0
aI0
aI0
aI0
asg17
S'2'
p39
sg19
S'NoSet'
p40
sbsg21
I10
sba(irbf_neuron
RbfNeuron
p41
(dp42
g8
I00
sg9
I00
sg10
I01
sg11
F23.0
sg12
(irbf_knowledge
RbfKnowledge
p43
(dp44
g15
(lp45
I0
aI8
aI3
aI0
aI0
aI8
aI0
aI0
aI0
aI8
aI0
aI0
aI0
aI8
aI3
aI0
aI0
aI0
aI2
aI0
aI0
aI0
aI2
aI0
aI0
aI8
aI3
aI0
aI0
aI0
aI0
aI0
aI0
aI0
aI0
aI0
aI0
aI0
aI0
aI0
aI0
aI0
aI0
aI0
aI0
aI0
aI0
aI0
aI0
aI0
aI0
aI0
aI0
aI0
aI0
aI0
aI0
aI0
aI0
aI0
aI0
aI0
aI0
aI0
asg17
S'3'
p46
sg19
g40
sbsg21
I10
sba(irbf_neuron
RbfNeuron
p47
(dp48
g8
I00
sg9
I00
sg10
I01
sg11
F63.0
sg12
(irbf_knowledge
RbfKnowledge
p49
(dp50
g15
(lp51
I12
aI11
aI3
aI0
aI8
aI10
aI0
aI0
aI8
aI10
aI0
aI0
aI8
aI11
aI3
aI0
aI0
aI0
aI2
aI0
aI0
aI0
aI2
aI0
aI0
aI8
aI3
aI0
aI0
aI0
aI0
aI0
aI0
aI0
aI0
aI0
aI0
aI0
aI0
aI0
aI0
aI0
aI0
aI0
aI0
aI0
aI0
aI0
aI0
aI0
aI0
aI0
aI0
aI0
aI0
aI0
aI0
aI0
aI0
aI0
aI0
aI0
aI0
aI0
asg17
S'syll_1'
p52
sg19
g40
sbsg21
I10
sba(irbf_neuron
RbfNeuron
p53
(dp54
g8
I00
sg9
I00
sg10
I01
sg11
F52.0
sg12
(irbf_knowledge
RbfKnowledge
p55
(dp56
g15
(lp57
I12
aI11
aI3
aI0
aI8
aI2
aI2
aI0
aI8
aI2
aI2
aI0
aI8
aI11
aI3
aI0
aI0
aI0
aI0
aI0
aI0
aI0
aI0
aI0
aI0
aI0
aI0
aI0
aI0
aI0
aI0
aI0
aI0
aI0
aI0
aI0
aI0
aI0
aI0
aI0
aI0
aI0
aI0
aI0
aI0
aI0
aI0
aI0
aI0
aI0
aI0
aI0
aI0
aI0
aI0
aI0
aI0
aI0
aI0
aI0
aI0
aI0
aI0
aI0
asg17
S'syll_2'
p58
sg19
g40
sbsg21
I10
sba(irbf_neuron
RbfNeuron
p59
(dp60
g8
I00
sg9
I00
sg10
I01
sg11
F37.0
sg12
(irbf_knowledge
RbfKnowledge
p61
(dp62
g15
(lp63
I0
aI8
aI3
aI0
aI0
aI0
aI1
aI0
aI0
aI0
aI1
aI0
aI0
aI0
aI1
aI0
aI0
aI0
aI1
aI0
aI0
aI0
aI3
aI0
aI0
aI0
aI1
aI0
aI0
aI0
aI0
aI0
aI0
aI0
aI0
aI0
aI0
aI0
aI0
aI0
aI0
aI0
aI0
aI0
aI0
aI0
aI0
aI0
aI0
aI0
aI0
aI0
aI0
aI0
aI0
aI0
aI0
aI0
aI0
aI0
aI0
aI0
aI0
aI0
asg17
S'4'
p64
sg19
S'NoSet'
p65
sbsg21
I10
sba(irbf_neuron
RbfNeuron
p66
(dp67
g8
I00
sg9
I00
sg10
I01
sg11
F47.0
sg12
(irbf_knowledge
RbfKnowledge
p68
(dp69
g15
(lp70
I0
aI8
aI3
aI0
aI0
aI0
aI2
aI0
aI0
aI0
aI2
aI0
aI0
aI8
aI3
aI0
aI0
aI8
aI0
aI0
aI0
aI8
aI0
aI0
aI0
aI8
aI3
aI0
aI0
aI0
aI0
aI0
aI0
aI0
aI0
aI0
aI0
aI0
aI0
aI0
aI0
aI0
aI0
aI0
aI0
aI0
aI0
aI0
aI0
aI0
aI0
aI0
aI0
aI0
aI0
aI0
aI0
aI0
aI0
aI0
aI0
aI0
aI0
aI0
asg17
S'5'
p71
sg19
g65
sbsg21
I10
sba(irbf_neuron
RbfNeuron
p72
(dp73
g8
I00
sg9
I00
sg10
I01
sg11
F35.0
sg12
(irbf_knowledge
RbfKnowledge
p74
(dp75
g15
(lp76
I0
aI8
aI3
aI0
aI0
aI8
aI0
aI0
aI0
aI8
aI0
aI0
aI0
aI8
aI3
aI0
aI0
aI8
aI0
aI0
aI0
aI8
aI0
aI0
aI0
aI8
aI3
aI0
aI0
aI0
aI0
aI0
aI0
aI0
aI0
aI0
aI0
aI0
aI0
aI0
aI0
aI0
aI0
aI0
aI0
aI0
aI0
aI0
aI0
aI0
aI0
aI0
aI0
aI0
aI0
aI0
aI0
aI0
aI0
aI0
aI0
aI0
aI0
aI0
asg17
S'6'
p77
sg19
g65
sbsg21
F8.0
sba(irbf_neuron
RbfNeuron
p78
(dp79
g8
I01
sg9
I01
sg10
I01
sg11
F0.0
sg12
(irbf_knowledge
RbfKnowledge
p80
(dp81
g15
(lp82
I0
aI0
aI1
aI0
aI0
aI8
aI3
aI0
aI0
aI0
aI1
aI0
aI0
aI0
aI0
aI0
aI0
aI0
aI0
aI0
aI0
aI0
aI0
aI0
aI0
aI0
aI0
aI0
aI0
aI0
aI0
aI0
aI0
aI0
aI0
aI0
aI0
aI0
aI0
aI0
aI0
aI0
aI0
aI0
aI0
aI0
aI0
aI0
aI0
aI0
aI0
aI0
aI0
aI0
aI0
aI0
aI0
aI0
aI0
aI0
aI0
aI0
aI0
aI0
asg17
S'7'
p83
sg19
g65
sbsg21
F0.0
sba(irbf_neuron
RbfNeuron
p84
(dp85
g8
I00
sg9
I00
sg10
I01
sg11
F26.0
sg12
(irbf_knowledge
RbfKnowledge
p86
(dp87
g15
(lp88
I0
aI8
aI3
aI0
aI0
aI0
aI0
aI0
aI0
aI8
aI3
aI0
aI0
aI0
aI0
aI0
aI0
aI0
aI0
aI0
aI0
aI0
aI0
aI0
aI0
aI0
aI0
aI0
aI0
aI0
aI0
aI0
aI0
aI0
aI0
aI0
aI0
aI0
aI0
aI0
aI0
aI0
aI0
aI0
aI0
aI0
aI0
aI0
aI0
aI0
aI0
aI0
aI0
aI0
aI0
aI0
aI0
aI0
aI0
aI0
aI0
aI0
aI0
aI0
asg17
S'8'
p89
sg19
g65
sbsg21
I10
sba(irbf_neuron
RbfNeuron
p90
(dp91
g8
I00
sg9
I00
sg10
I01
sg11
F41.0
sg12
(irbf_knowledge
RbfKnowledge
p92
(dp93
g15
(lp94
I0
aI8
aI0
aI0
aI0
aI8
aI0
aI0
aI0
aI8
aI0
aI0
aI0
aI8
aI3
aI0
aI0
aI8
aI2
aI0
aI0
aI8
aI2
aI0
aI0
aI8
aI2
aI0
aI0
aI0
aI0
aI0
aI0
aI0
aI0
aI0
aI0
aI0
aI0
aI0
aI0
aI0
aI0
aI0
aI0
aI0
aI0
aI0
aI0
aI0
aI0
aI0
aI0
aI0
aI0
aI0
aI0
aI0
aI0
aI0
aI0
aI0
aI0
aI0
asg17
S'9'
p95
sg19
S'NoSet'
p96
sbsg21
F8.0
sba(irbf_neuron
RbfNeuron
p97
(dp98
g8
I00
sg9
I00
sg10
I01
sg11
F54.0
sg12
(irbf_knowledge
RbfKnowledge
p99
(dp100
g15
(lp101
I0
aI8
aI0
aI0
aI0
aI8
aI0
aI0
aI0
aI8
aI0
aI0
aI0
aI14
aI0
aI0
aI0
aI10
aI0
aI0
aI0
aI10
aI0
aI0
aI0
aI14
aI0
aI0
aI0
aI0
aI0
aI0
aI0
aI0
aI0
aI0
aI0
aI0
aI0
aI0
aI0
aI0
aI0
aI0
aI0
aI0
aI0
aI0
aI0
aI0
aI0
aI0
aI0
aI0
aI0
aI0
aI0
aI0
aI0
aI0
aI0
aI0
aI0
aI0
asg17
S'10'
p102
sg19
g96
sbsg21
I10
sba(irbf_neuron
RbfNeuron
p103
(dp104
g8
I00
sg9
I00
sg10
I01
sg11
F102.0
sg12
(irbf_knowledge
RbfKnowledge
p105
(dp106
g15
(lp107
I0
aI0
aI0
aI0
aI0
aI0
aI0
aI0
aI0
aI0
aI0
aI0
aI0
aI0
aI2
aI0
aI0
aI8
aI7
aI0
aI0
aI3
aI0
aI0
aI0
aI2
aI4
aI0
aI0
aI0
aI4
aI0
aI0
aI2
aI4
aI0
aI0
aI8
aI3
aI0
aI0
aI4
aI1
aI0
aI0
aI8
aI0
aI0
aI0
aI0
aI0
aI0
aI0
aI0
aI0
aI0
aI0
aI0
aI0
aI0
aI0
aI0
aI0
aI0
asg17
S'11'
p108
sg19
g96
sbsg21
I10
sba(irbf_neuron
RbfNeuron
p109
(dp110
g8
I00
sg9
I00
sg10
I01
sg11
F92.0
sg12
(irbf_knowledge
RbfKnowledge
p111
(dp112
g15
(lp113
I12
aI3
aI2
aI0
aI8
aI2
aI2
aI0
aI8
aI2
aI2
aI0
aI8
aI11
aI3
aI0
aI0
aI8
aI2
aI0
aI0
aI8
aI2
aI0
aI0
aI8
aI3
aI0
aI0
aI0
aI0
aI0
aI0
aI0
aI0
aI0
aI0
aI0
aI0
aI0
aI0
aI0
aI0
aI0
aI0
aI0
aI0
aI0
aI0
aI0
aI0
aI0
aI0
aI0
aI0
aI0
aI0
aI0
aI0
aI0
aI0
aI0
aI0
aI0
asg17
S'syll_3'
p114
sg19
g96
sbsg21
I10
sba(irbf_neuron
RbfNeuron
p115
(dp116
g8
I00
sg9
I00
sg10
I01
sg11
F0.0
sg12
(irbf_knowledge
RbfKnowledge
p117
(dp118
g15
(lp119
I0
aI12
aI3
aI0
aI0
aI8
aI2
aI0
aI0
aI8
aI2
aI0
aI0
aI8
aI3
aI0
aI0
aI0
aI0
aI0
aI0
aI0
aI0
aI0
aI0
aI0
aI0
aI0
aI0
aI0
aI0
aI0
aI0
aI0
aI0
aI0
aI0
aI0
aI0
aI0
aI0
aI0
aI0
aI0
aI0
aI0
aI0
aI0
aI0
aI0
aI0
aI0
aI0
aI0
aI0
aI0
aI0
aI0
aI0
aI0
aI0
aI0
aI0
aI0
asg17
S'syll_4'
p120
sg19
S'NoSet'
p121
sbsg21
F0.0
sba(irbf_neuron
RbfNeuron
p122
(dp123
g8
I01
sg9
I01
sg10
I01
sg11
F0.0
sg12
(irbf_knowledge
RbfKnowledge
p124
(dp125
g15
(lp126
I0
aI12
aI3
aI0
aI0
aI8
aI2
aI0
aI0
aI8
aI2
aI0
aI0
aI8
aI3
aI0
aI0
aI0
aI0
aI0
aI0
aI0
aI0
aI0
aI0
aI0
aI0
aI0
aI0
aI0
aI0
aI0
aI0
aI0
aI0
aI0
aI0
aI0
aI0
aI0
aI0
aI0
aI0
aI0
aI0
aI0
aI0
aI0
aI0
aI0
aI0
aI0
aI0
aI0
aI0
aI0
aI0
aI0
aI0
aI0
aI0
aI0
aI0
aI0
asg17
S'12'
p127
sg19
S'NoSet'
p128
sbsg21
F0.0
sba(irbf_neuron
RbfNeuron
p129
(dp130
g8
I00
sg9
I00
sg10
I01
sg11
F0.0
sg12
(irbf_knowledge
RbfKnowledge
p131
(dp132
g15
(lp133
I0
aI12
aI3
aI0
aI0
aI8
aI2
aI0
aI0
aI8
aI2
aI0
aI0
aI8
aI3
aI0
aI0
aI0
aI0
aI0
aI0
aI0
aI0
aI0
aI0
aI0
aI0
aI0
aI0
aI0
aI0
aI0
aI0
aI0
aI0
aI0
aI0
aI0
aI0
aI0
aI0
aI0
aI0
aI0
aI0
aI0
aI0
aI0
aI0
aI0
aI0
aI0
aI0
aI0
aI0
aI0
aI0
aI0
aI0
aI0
aI0
aI0
aI0
aI0
asg17
S'13'
p134
sg19
g128
sbsg21
F0.0
sba(irbf_neuron
RbfNeuron
p135
(dp136
g8
I01
sg9
I01
sg10
I01
sg11
F0.0
sg12
(irbf_knowledge
RbfKnowledge
p137
(dp138
g15
(lp139
I0
aI12
aI3
aI0
aI0
aI8
aI2
aI0
aI0
aI8
aI2
aI0
aI0
aI8
aI3
aI0
aI0
aI0
aI0
aI0
aI0
aI0
aI0
aI0
aI0
aI0
aI0
aI0
aI0
aI0
aI0
aI0
aI0
aI0
aI0
aI0
aI0
aI0
aI0
aI0
aI0
aI0
aI0
aI0
aI0
aI0
aI0
aI0
aI0
aI0
aI0
aI0
aI0
aI0
aI0
aI0
aI0
aI0
aI0
aI0
aI0
aI0
aI0
aI0
asg17
S'14'
p140
sg19
g128
sbsg21
F0.0
sba(irbf_neuron
RbfNeuron
p141
(dp142
g8
I00
sg9
I00
sg10
I01
sg11
F0.0
sg12
(irbf_knowledge
RbfKnowledge
p143
(dp144
g15
(lp145
I0
aI12
aI3
aI0
aI0
aI8
aI2
aI0
aI0
aI8
aI2
aI0
aI0
aI8
aI3
aI0
aI0
aI0
aI0
aI0
aI0
aI0
aI0
aI0
aI0
aI0
aI0
aI0
aI0
aI0
aI0
aI0
aI0
aI0
aI0
aI0
aI0
aI0
aI0
aI0
aI0
aI0
aI0
aI0
aI0
aI0
aI0
aI0
aI0
aI0
aI0
aI0
aI0
aI0
aI0
aI0
aI0
aI0
aI0
aI0
aI0
aI0
aI0
aI0
asg17
S'syll_5'
p146
sg19
S'NoSet'
p147
sbsg21
F0.0
sba(irbf_neuron
RbfNeuron
p148
(dp149
g8
I01
sg9
I01
sg10
I01
sg11
F0.0
sg12
(irbf_knowledge
RbfKnowledge
p150
(dp151
g15
(lp152
I0
aI12
aI3
aI0
aI0
aI8
aI2
aI0
aI0
aI8
aI2
aI0
aI0
aI8
aI3
aI0
aI0
aI0
aI0
aI0
aI0
aI0
aI0
aI0
aI0
aI0
aI0
aI0
aI0
aI0
aI0
aI0
aI0
aI0
aI0
aI0
aI0
aI0
aI0
aI0
aI0
aI0
aI0
aI0
aI0
aI0
aI0
aI0
aI0
aI0
aI0
aI0
aI0
aI0
aI0
aI0
aI0
aI0
aI0
aI0
aI0
aI0
aI0
aI0
asg17
S'syll_5'
p153
sg19
g147
sbsg21
F0.0
sba(irbf_neuron
RbfNeuron
p154
(dp155
g8
I01
sg9
I01
sg10
I01
sg11
F0.0
sg12
(irbf_knowledge
RbfKnowledge
p156
(dp157
g15
(lp158
I0
aI8
aI3
aI0
aI0
aI0
aI2
aI0
aI0
aI8
aI3
aI0
aI0
aI8
aI2
aI0
aI0
aI8
aI3
aI0
aI0
aI0
aI0
aI0
aI0
aI0
aI0
aI0
aI0
aI0
aI0
aI0
aI0
aI0
aI0
aI0
aI0
aI0
aI0
aI0
aI0
aI0
aI0
aI0
aI0
aI0
aI0
aI0
aI0
aI0
aI0
aI0
aI0
aI0
aI0
aI0
aI0
aI0
aI0
aI0
aI0
aI0
aI0
aI0
asg17
S'15'
p159
sg19
S'NoSet'
p160
sbsg21
F0.0
sba(irbf_neuron
RbfNeuron
p161
(dp162
g8
I00
sg9
I00
sg10
I01
sg11
F25.0
sg12
(irbf_knowledge
RbfKnowledge
p163
(dp164
g15
(lp165
I0
aI8
aI3
aI0
aI0
aI0
aI2
aI0
aI0
aI8
aI3
aI0
aI0
aI8
aI2
aI0
aI0
aI8
aI3
aI0
aI0
aI0
aI0
aI0
aI0
aI0
aI0
aI0
aI0
aI0
aI0
aI0
aI0
aI0
aI0
aI0
aI0
aI0
aI0
aI0
aI0
aI0
aI0
aI0
aI0
aI0
aI0
aI0
aI0
aI0
aI0
aI0
aI0
aI0
aI0
aI0
aI0
aI0
aI0
aI0
aI0
aI0
aI0
aI0
asg17
S'syll_6'
p166
sg19
g160
sbsg21
F0.0
sba(irbf_neuron
RbfNeuron
p167
(dp168
g8
I01
sg9
I01
sg10
I01
sg11
F0.0
sg12
(irbf_knowledge
RbfKnowledge
p169
(dp170
g15
(lp171
I0
aI8
aI3
aI0
aI0
aI0
aI2
aI0
aI0
aI8
aI3
aI0
aI0
aI8
aI2
aI0
aI0
aI8
aI3
aI0
aI0
aI0
aI0
aI0
aI0
aI0
aI0
aI0
aI0
aI0
aI0
aI0
aI0
aI0
aI0
aI0
aI0
aI0
aI0
aI0
aI0
aI0
aI0
aI0
aI0
aI0
aI0
aI0
aI0
aI0
aI0
aI0
aI0
aI0
aI0
aI0
aI0
aI0
aI0
aI0
aI0
aI0
aI0
aI0
asg17
S'syll_6'
p172
sg19
g160
sbsg21
F0.0
sba(irbf_neuron
RbfNeuron
p173
(dp174
g8
I00
sg9
I00
sg10
I01
sg11
F25.0
sg12
(irbf_knowledge
RbfKnowledge
p175
(dp176
g15
(lp177
I0
aI8
aI3
aI0
aI0
aI0
aI2
aI0
aI0
aI8
aI3
aI0
aI0
aI8
aI2
aI0
aI0
aI8
aI3
aI0
aI0
aI0
aI0
aI0
aI0
aI0
aI0
aI0
aI0
aI0
aI0
aI0
aI0
aI0
aI0
aI0
aI0
aI0
aI0
aI0
aI0
aI0
aI0
aI0
aI0
aI0
aI0
aI0
aI0
aI0
aI0
aI0
aI0
aI0
aI0
aI0
aI0
aI0
aI0
aI0
aI0
aI0
aI0
aI0
asg17
S'16'
p178
sg19
S'NoSet'
p179
sbsg21
F0.0
sba(irbf_neuron
RbfNeuron
p180
(dp181
g8
I00
sg9
I00
sg10
I01
sg11
F25.0
sg12
(irbf_knowledge
RbfKnowledge
p182
(dp183
g15
(lp184
I0
aI8
aI3
aI0
aI0
aI0
aI2
aI0
aI0
aI8
aI3
aI0
aI0
aI8
aI2
aI0
aI0
aI8
aI3
aI0
aI0
aI0
aI0
aI0
aI0
aI0
aI0
aI0
aI0
aI0
aI0
aI0
aI0
aI0
aI0
aI0
aI0
aI0
aI0
aI0
aI0
aI0
aI0
aI0
aI0
aI0
aI0
aI0
aI0
aI0
aI0
aI0
aI0
aI0
aI0
aI0
aI0
aI0
aI0
aI0
aI0
aI0
aI0
aI0
asg17
S'17'
p185
sg19
g179
sbsg21
I10
sba(irbf_neuron
RbfNeuron
p186
(dp187
g8
I00
sg9
I00
sg10
I01
sg11
F27.0
sg12
(irbf_knowledge
RbfKnowledge
p188
(dp189
g15
(lp190
I0
aI8
aI3
aI0
aI0
aI8
aI0
aI0
aI0
aI8
aI3
aI0
aI0
aI0
aI2
aI0
aI0
aI8
aI3
aI0
aI0
aI0
aI0
aI0
aI0
aI0
aI0
aI0
aI0
aI0
aI0
aI0
aI0
aI0
aI0
aI0
aI0
aI0
aI0
aI0
aI0
aI0
aI0
aI0
aI0
aI0
aI0
aI0
aI0
aI0
aI0
aI0
aI0
aI0
aI0
aI0
aI0
aI0
aI0
aI0
aI0
aI0
aI0
aI0
asg17
S'18'
p191
sg19
S'NoSet'
p192
sbsg21
I10
sba(irbf_neuron
RbfNeuron
p193
(dp194
g8
I00
sg9
I00
sg10
I01
sg11
F0.0
sg12
(irbf_knowledge
RbfKnowledge
p195
(dp196
g15
(lp197
I0
aI12
aI3
aI0
aI0
aI8
aI2
aI0
aI0
aI8
aI2
aI0
aI0
aI8
aI3
aI0
aI0
aI0
aI0
aI0
aI0
aI0
aI0
aI0
aI0
aI0
aI0
aI0
aI0
aI0
aI0
aI0
aI0
aI0
aI0
aI0
aI0
aI0
aI0
aI0
aI0
aI0
aI0
aI0
aI0
aI0
aI0
aI0
aI0
aI0
aI0
aI0
aI0
aI0
aI0
aI0
aI0
aI0
aI0
aI0
aI0
aI0
aI0
aI0
asg17
S'19'
p198
sg19
S'NoSet'
p199
sbsg21
F0.0
sba(irbf_neuron
RbfNeuron
p200
(dp201
g8
I01
sg9
I01
sg10
I01
sg11
F0.0
sg12
(irbf_knowledge
RbfKnowledge
p202
(dp203
g15
(lp204
I0
aI12
aI3
aI0
aI0
aI8
aI2
aI0
aI0
aI8
aI2
aI0
aI0
aI8
aI3
aI0
aI0
aI0
aI0
aI0
aI0
aI0
aI0
aI0
aI0
aI0
aI0
aI0
aI0
aI0
aI0
aI0
aI0
aI0
aI0
aI0
aI0
aI0
aI0
aI0
aI0
aI0
aI0
aI0
aI0
aI0
aI0
aI0
aI0
aI0
aI0
aI0
aI0
aI0
aI0
aI0
aI0
aI0
aI0
aI0
aI0
aI0
aI0
aI0
asg17
S'20'
p205
sg19
g199
sbsg21
F0.0
sba(irbf_neuron
RbfNeuron
p206
(dp207
g8
I00
sg9
I00
sg10
I01
sg11
F26.0
sg12
(irbf_knowledge
RbfKnowledge
p208
(dp209
g15
(lp210
I0
aI12
aI11
aI3
aI0
aI8
aI2
aI2
aI0
aI8
aI2
aI2
aI0
aI8
aI11
aI3
aI0
aI0
aI0
aI0
aI0
aI0
aI0
aI0
aI0
aI0
aI0
aI0
aI0
aI0
aI0
aI0
aI0
aI0
aI0
aI0
aI0
aI0
aI0
aI0
aI0
aI0
aI0
aI0
aI0
aI0
aI0
aI0
aI0
aI0
aI0
aI0
aI0
aI0
aI0
aI0
aI0
aI0
aI0
aI0
aI0
aI0
aI0
aI0
asg17
S'syll_9'
p211
sg19
S'NoSet'
p212
sbsg21
I10
sba(irbf_neuron
RbfNeuron
p213
(dp214
g8
I00
sg9
I00
sg10
I01
sg11
F53.0
sg12
(irbf_knowledge
RbfKnowledge
p215
(dp216
g15
(lp217
I0
aI12
aI11
aI3
aI0
aI8
aI10
aI0
aI0
aI8
aI10
aI0
aI0
aI8
aI11
aI3
aI0
aI0
aI0
aI2
aI0
aI0
aI0
aI2
aI0
aI0
aI8
aI3
aI0
aI0
aI0
aI0
aI0
aI0
aI0
aI0
aI0
aI0
aI0
aI0
aI0
aI0
aI0
aI0
aI0
aI0
aI0
aI0
aI0
aI0
aI0
aI0
aI0
aI0
aI0
aI0
aI0
aI0
aI0
aI0
aI0
aI0
aI0
aI0
asg17
S'syll_11'
p218
sg19
S'NoSet'
p219
sbsg21
I10
sba(irbf_neuron
RbfNeuron
p220
(dp221
g8
I00
sg9
I00
sg10
I01
sg11
F231.0
sg12
(irbf_knowledge
RbfKnowledge
p222
(dp223
g15
(lp224
I0
aI0
aI0
aI0
aI0
aI0
aI0
aI0
aI0
aI14
aI3
aI0
aI0
aI14
aI3
aI0
aI0
aI14
aI3
aI0
aI0
aI14
aI3
aI0
aI0
aI14
aI3
aI0
aI0
aI14
aI3
aI0
aI0
aI14
aI3
aI0
aI0
aI14
aI3
aI0
aI0
aI14
aI3
aI0
aI0
aI2
aI3
aI0
aI0
aI15
aI3
aI0
aI0
aI15
aI7
aI0
aI0
aI14
aI3
aI0
aI0
aI12
aI0
aI0
asg17
S'21'
p225
sg19
S'NoSet'
p226
sbsg21
I10
sba(irbf_neuron
RbfNeuron
p227
(dp228
g8
I00
sg9
I00
sg10
I01
sg11
F0.0
sg12
(irbf_knowledge
RbfKnowledge
p229
(dp230
g15
(lp231
I0
aI12
aI3
aI0
aI0
aI8
aI2
aI0
aI0
aI8
aI2
aI0
aI0
aI8
aI3
aI0
aI0
aI0
aI0
aI0
aI0
aI0
aI0
aI0
aI0
aI0
aI0
aI0
aI0
aI0
aI0
aI0
aI0
aI0
aI0
aI0
aI0
aI0
aI0
aI0
aI0
aI0
aI0
aI0
aI0
aI0
aI0
aI0
aI0
aI0
aI0
aI0
aI0
aI0
aI0
aI0
aI0
aI0
aI0
aI0
aI0
aI0
aI0
aI0
asg17
S'21'
p232
sg19
S'NoSet'
p233
sbsg21
F0.0
sba(irbf_neuron
RbfNeuron
p234
(dp235
g8
I00
sg9
I01
sg10
I01
sg11
F0.0
sg12
(irbf_knowledge
RbfKnowledge
p236
(dp237
g15
(lp238
I0
aI12
aI3
aI0
aI0
aI8
aI2
aI0
aI0
aI8
aI2
aI0
aI0
aI8
aI3
aI0
aI0
aI0
aI0
aI0
aI0
aI0
aI0
aI0
aI0
aI0
aI0
aI0
aI0
aI0
aI0
aI0
aI0
aI0
aI0
aI0
aI0
aI0
aI0
aI0
aI0
aI0
aI0
aI0
aI0
aI0
aI0
aI0
aI0
aI0
aI0
aI0
aI0
aI0
aI0
aI0
aI0
aI0
aI0
aI0
aI0
aI0
aI0
aI0
asg17
S'22'
p239
sg19
g233
sbsg21
I10
sba(irbf_neuron
RbfNeuron
p240
(dp241
g8
I00
sg9
I00
sg10
I01
sg11
F38.0
sg12
(irbf_knowledge
RbfKnowledge
p242
(dp243
g15
(lp244
I14
aI13
aI3
aI0
aI4
aI9
aI2
aI0
aI4
aI9
aI2
aI0
aI12
aI9
aI3
aI0
aI0
aI0
aI0
aI0
aI0
aI0
aI0
aI0
aI0
aI0
aI0
aI0
aI0
aI0
aI0
aI0
aI0
aI0
aI0
aI0
aI0
aI0
aI0
aI0
aI0
aI0
aI0
aI0
aI0
aI0
aI0
aI0
aI0
aI0
aI0
aI0
aI0
aI0
aI0
aI0
aI0
aI0
aI0
aI0
aI0
aI0
aI0
aI0
asg17
S'syll_12'
p245
sg19
g233
sbsg21
I10
sba(irbf_neuron
RbfNeuron
p246
(dp247
g8
I00
sg9
I00
sg10
I01
sg11
F73.0
sg12
(irbf_knowledge
RbfKnowledge
p248
(dp249
g15
(lp250
I0
aI0
aI0
aI0
aI0
aI0
aI0
aI0
aI0
aI0
aI0
aI0
aI0
aI0
aI0
aI0
aI0
aI0
aI0
aI0
aI0
aI0
aI0
aI0
aI0
aI0
aI0
aI0
aI0
aI4
aI0
aI0
aI0
aI12
aI3
aI0
aI0
aI4
aI0
aI0
aI0
aI4
aI0
aI0
aI0
aI0
aI0
aI0
aI0
aI0
aI0
aI0
aI0
aI0
aI0
aI0
aI0
aI0
aI0
aI0
aI0
aI0
aI0
aI0
asg17
S'syll_12'
p251
sg19
g233
sbsg21
I10
sba(irbf_neuron
RbfNeuron
p252
(dp253
g8
I00
sg9
I00
sg10
I01
sg11
F53.0
sg12
(irbf_knowledge
RbfKnowledge
p254
(dp255
g15
(lp256
I14
aI13
aI3
aI0
aI4
aI9
aI2
aI0
aI4
aI9
aI2
aI0
aI12
aI9
aI3
aI0
aI0
aI0
aI0
aI0
aI8
aI0
aI0
aI0
aI0
aI0
aI0
aI0
aI0
aI1
aI2
aI0
aI0
aI4
aI0
aI0
aI0
aI0
aI0
aI0
aI0
aI0
aI0
aI0
aI0
aI0
aI0
aI0
aI0
aI0
aI0
aI0
aI0
aI0
aI0
aI0
aI0
aI0
aI0
aI0
aI0
aI0
aI0
aI0
asg17
S'syll_12'
p257
sg19
g233
sbsg21
I10
sba(irbf_neuron
RbfNeuron
p258
(dp259
g8
I00
sg9
I00
sg10
I01
sg11
F54.0
sg12
(irbf_knowledge
RbfKnowledge
p260
(dp261
g15
(lp262
I14
aI13
aI3
aI0
aI4
aI13
aI2
aI0
aI4
aI9
aI2
aI0
aI12
aI9
aI3
aI0
aI0
aI0
aI0
aI0
aI0
aI0
aI0
aI0
aI8
aI1
aI0
aI0
aI0
aI1
aI0
aI0
aI0
aI2
aI0
aI0
aI0
aI0
aI0
aI0
aI0
aI0
aI0
aI0
aI0
aI0
aI0
aI0
aI0
aI0
aI0
aI0
aI0
aI0
aI0
aI0
aI0
aI0
aI0
aI0
aI0
aI0
aI0
aI0
asg17
S'syll_12'
p263
sg19
S'NoSet'
p264
sbsg21
I10
sba(irbf_neuron
RbfNeuron
p265
(dp266
g8
I00
sg9
I00
sg10
I01
sg11
F35.0
sg12
(irbf_knowledge
RbfKnowledge
p267
(dp268
g15
(lp269
I0
aI0
aI1
aI0
aI0
aI8
aI3
aI0
aI0
aI0
aI1
aI0
aI0
aI0
aI0
aI0
aI0
aI0
aI0
aI0
aI0
aI0
aI0
aI0
aI0
aI0
aI0
aI0
aI0
aI0
aI0
aI0
aI0
aI0
aI0
aI0
aI0
aI0
aI0
aI0
aI0
aI0
aI0
aI0
aI0
aI0
aI0
aI0
aI0
aI0
aI0
aI0
aI0
aI0
aI0
aI0
aI0
aI0
aI0
aI0
aI0
aI0
aI0
aI0
asg17
S'23'
p270
sg19
S'NoSet'
p271
sbsg21
F0.0
sba(irbf_neuron
RbfNeuron
p272
(dp273
g8
I00
sg9
I00
sg10
I01
sg11
F35.0
sg12
(irbf_knowledge
RbfKnowledge
p274
(dp275
g15
(lp276
I0
aI0
aI1
aI0
aI0
aI8
aI3
aI0
aI0
aI0
aI1
aI0
aI0
aI0
aI0
aI0
aI0
aI0
aI0
aI0
aI0
aI0
aI0
aI0
aI0
aI0
aI0
aI0
aI0
aI0
aI0
aI0
aI0
aI0
aI0
aI0
aI0
aI0
aI0
aI0
aI0
aI0
aI0
aI0
aI0
aI0
aI0
aI0
aI0
aI0
aI0
aI0
aI0
aI0
aI0
aI0
aI0
aI0
aI0
aI0
aI0
aI0
aI0
aI0
asg17
S'23'
p277
sg19
g271
sbsg21
I10
sba(irbf_neuron
RbfNeuron
p278
(dp279
g8
I00
sg21
I24
sg10
I00
sba(irbf_neuron
RbfNeuron
p280
(dp281
g8
I00
sg21
I24
sg10
I00
sba(irbf_neuron
RbfNeuron
p282
(dp283
g8
I00
sg21
I24
sg10
I00
sba(irbf_neuron
RbfNeuron
p284
(dp285
g8
I00
sg21
I24
sg10
I00
sba(irbf_neuron
RbfNeuron
p286
(dp287
g8
I00
sg21
I24
sg10
I00
sba(irbf_neuron
RbfNeuron
p288
(dp289
g8
I00
sg21
I24
sg10
I00
sba(irbf_neuron
RbfNeuron
p290
(dp291
g8
I00
sg21
I24
sg10
I00
sba(irbf_neuron
RbfNeuron
p292
(dp293
g8
I00
sg21
I24
sg10
I00
sba(irbf_neuron
RbfNeuron
p294
(dp295
g8
I00
sg21
I24
sg10
I00
sba(irbf_neuron
RbfNeuron
p296
(dp297
g8
I00
sg21
I24
sg10
I00
sba(irbf_neuron
RbfNeuron
p298
(dp299
g8
I00
sg21
I24
sg10
I00
sba(irbf_neuron
RbfNeuron
p300
(dp301
g8
I00
sg21
I24
sg10
I00
sba(irbf_neuron
RbfNeuron
p302
(dp303
g8
I00
sg21
I24
sg10
I00
sba(irbf_neuron
RbfNeuron
p304
(dp305
g8
I00
sg21
I24
sg10
I00
sba(irbf_neuron
RbfNeuron
p306
(dp307
g8
I00
sg21
I24
sg10
I00
sba(irbf_neuron
RbfNeuron
p308
(dp309
g8
I00
sg21
I24
sg10
I00
sba(irbf_neuron
RbfNeuron
p310
(dp311
g8
I00
sg21
I24
sg10
I00
sba(irbf_neuron
RbfNeuron
p312
(dp313
g8
I00
sg21
I24
sg10
I00
sba(irbf_neuron
RbfNeuron
p314
(dp315
g8
I00
sg21
I24
sg10
I00
sba(irbf_neuron
RbfNeuron
p316
(dp317
g8
I00
sg21
I24
sg10
I00
sba(irbf_neuron
RbfNeuron
p318
(dp319
g8
I00
sg21
I24
sg10
I00
sba(irbf_neuron
RbfNeuron
p320
(dp321
g8
I00
sg21
I24
sg10
I00
sba(irbf_neuron
RbfNeuron
p322
(dp323
g8
I00
sg21
I24
sg10
I00
sba(irbf_neuron
RbfNeuron
p324
(dp325
g8
I00
sg21
I24
sg10
I00
sba(irbf_neuron
RbfNeuron
p326
(dp327
g8
I00
sg21
I24
sg10
I00
sba(irbf_neuron
RbfNeuron
p328
(dp329
g8
I00
sg21
I24
sg10
I00
sba(irbf_neuron
RbfNeuron
p330
(dp331
g8
I00
sg21
I24
sg10
I00
sba(irbf_neuron
RbfNeuron
p332
(dp333
g8
I00
sg21
I24
sg10
I00
sba(irbf_neuron
RbfNeuron
p334
(dp335
g8
I00
sg21
I24
sg10
I00
sba(irbf_neuron
RbfNeuron
p336
(dp337
g8
I00
sg21
I24
sg10
I00
sba(irbf_neuron
RbfNeuron
p338
(dp339
g8
I00
sg21
I24
sg10
I00
sba(irbf_neuron
RbfNeuron
p340
(dp341
g8
I00
sg21
I24
sg10
I00
sba(irbf_neuron
RbfNeuron
p342
(dp343
g8
I00
sg21
I24
sg10
I00
sba(irbf_neuron
RbfNeuron
p344
(dp345
g8
I00
sg21
I24
sg10
I00
sba(irbf_neuron
RbfNeuron
p346
(dp347
g8
I00
sg21
I24
sg10
I00
sba(irbf_neuron
RbfNeuron
p348
(dp349
g8
I00
sg21
I24
sg10
I00
sba(irbf_neuron
RbfNeuron
p350
(dp351
g8
I00
sg21
I24
sg10
I00
sba(irbf_neuron
RbfNeuron
p352
(dp353
g8
I00
sg21
I24
sg10
I00
sba(irbf_neuron
RbfNeuron
p354
(dp355
g8
I00
sg21
I24
sg10
I00
sba(irbf_neuron
RbfNeuron
p356
(dp357
g8
I00
sg21
I24
sg10
I00
sba(irbf_neuron
RbfNeuron
p358
(dp359
g8
I00
sg21
I24
sg10
I00
sba(irbf_neuron
RbfNeuron
p360
(dp361
g8
I00
sg21
I24
sg10
I00
sba(irbf_neuron
RbfNeuron
p362
(dp363
g8
I00
sg21
I24
sg10
I00
sba(irbf_neuron
RbfNeuron
p364
(dp365
g8
I00
sg21
I24
sg10
I00
sba(irbf_neuron
RbfNeuron
p366
(dp367
g8
I00
sg21
I24
sg10
I00
sba(irbf_neuron
RbfNeuron
p368
(dp369
g8
I00
sg21
I24
sg10
I00
sba(irbf_neuron
RbfNeuron
p370
(dp371
g8
I00
sg21
I24
sg10
I00
sba(irbf_neuron
RbfNeuron
p372
(dp373
g8
I00
sg21
I24
sg10
I00
sba(irbf_neuron
RbfNeuron
p374
(dp375
g8
I00
sg21
I24
sg10
I00
sba(irbf_neuron
RbfNeuron
p376
(dp377
g8
I00
sg21
I24
sg10
I00
sba(irbf_neuron
RbfNeuron
p378
(dp379
g8
I00
sg21
I24
sg10
I00
sba(irbf_neuron
RbfNeuron
p380
(dp381
g8
I00
sg21
I24
sg10
I00
sba(irbf_neuron
RbfNeuron
p382
(dp383
g8
I00
sg21
I24
sg10
I00
sba(irbf_neuron
RbfNeuron
p384
(dp385
g8
I00
sg21
I24
sg10
I00
sba(irbf_neuron
RbfNeuron
p386
(dp387
g8
I00
sg21
I24
sg10
I00
sba(irbf_neuron
RbfNeuron
p388
(dp389
g8
I00
sg21
I24
sg10
I00
sba(irbf_neuron
RbfNeuron
p390
(dp391
g8
I00
sg21
I24
sg10
I00
sba(irbf_neuron
RbfNeuron
p392
(dp393
g8
I00
sg21
I24
sg10
I00
sba(irbf_neuron
RbfNeuron
p394
(dp395
g8
I00
sg21
I24
sg10
I00
sbasS'_index_recognize'
p396
(lp397
I34
asS'_index_ready_to_learn'
p398
I41
sS'_last_learned_id'
p399
I40
sb.