(irbf_network
RbfNetwork
p0
(dp1
S'_state'
p2
S'HIT'
p3
sS'neuron_list'
p4
(lp5
(irbf_neuron
RbfNeuron
p6
(dp7
S'_degraded'
p8
I00
sS'_hit'
p9
I00
sS'_has_knowledge'
p10
I01
sS'_distance'
p11
F19.0
sS'_knowledge'
p12
(irbf_knowledge
RbfKnowledge
p13
(dp14
S'_pattern'
p15
(lp16
I0
aI8
aI3
aI0
aI0
aI0
aI1
aI0
aI0
aI0
aI1
aI0
aI0
aI0
aI1
aI0
aI0
aI0
aI1
aI0
aI0
aI0
aI3
aI0
aI0
aI0
aI1
aI0
aI0
aI0
aI0
aI0
aI0
aI0
aI0
aI0
aI0
aI0
aI0
aI0
aI0
aI0
aI0
aI0
aI0
aI0
aI0
aI0
aI0
aI0
aI0
aI0
aI0
aI0
aI0
aI0
aI0
aI0
aI0
aI0
aI0
aI0
aI0
aI0
asS'_class'
p17
S'0'
p18
sS'_set'
p19
S'NoSet'
p20
sbsS'_radius'
p21
I10
sba(irbf_neuron
RbfNeuron
p22
(dp23
g8
I00
sg9
I00
sg10
I01
sg11
F13.0
sg12
(irbf_knowledge
RbfKnowledge
p24
(dp25
g15
(lp26
I0
aI0
aI1
aI0
aI0
aI8
aI3
aI0
aI0
aI0
aI1
aI0
aI0
aI0
aI0
aI0
aI0
aI0
aI0
aI0
aI0
aI0
aI0
aI0
aI0
aI0
aI0
aI0
aI0
aI0
aI0
aI0
aI0
aI0
aI0
aI0
aI0
aI0
aI0
aI0
aI0
aI0
aI0
aI0
aI0
aI0
aI0
aI0
aI0
aI0
aI0
aI0
aI0
aI0
aI0
aI0
aI0
aI0
aI0
aI0
aI0
aI0
aI0
aI0
asg17
S'1'
p27
sg19
g20
sbsg21
I10
sba(irbf_neuron
RbfNeuron
p28
(dp29
g8
I00
sg9
I00
sg10
I01
sg11
F22.0
sg12
(irbf_knowledge
RbfKnowledge
p30
(dp31
g15
(lp32
I0
aI8
aI3
aI0
aI0
aI0
aI0
aI0
aI0
aI8
aI3
aI0
aI0
aI0
aI0
aI0
aI0
aI0
aI0
aI0
aI0
aI0
aI0
aI0
aI0
aI0
aI0
aI0
aI0
aI0
aI0
aI0
aI0
aI0
aI0
aI0
aI0
aI0
aI0
aI0
aI0
aI0
aI0
aI0
aI0
aI0
aI0
aI0
aI0
aI0
aI0
aI0
aI0
aI0
aI0
aI0
aI0
aI0
aI0
aI0
aI0
aI0
aI0
aI0
asg17
S'2'
p33
sg19
g20
sbsg21
I10
sba(irbf_neuron
RbfNeuron
p34
(dp35
g8
I00
sg9
I00
sg10
I01
sg11
F43.0
sg12
(irbf_knowledge
RbfKnowledge
p36
(dp37
g15
(lp38
I0
aI8
aI3
aI0
aI0
aI0
aI2
aI0
aI0
aI8
aI3
aI0
aI0
aI8
aI0
aI0
aI0
aI8
aI3
aI0
aI0
aI0
aI0
aI0
aI0
aI0
aI0
aI0
aI0
aI0
aI0
aI0
aI0
aI0
aI0
aI0
aI0
aI0
aI0
aI0
aI0
aI0
aI0
aI0
aI0
aI0
aI0
aI0
aI0
aI0
aI0
aI0
aI0
aI0
aI0
aI0
aI0
aI0
aI0
aI0
aI0
aI0
aI0
aI0
asg17
S'3'
p39
sg19
g20
sbsg21
I10
sba(irbf_neuron
RbfNeuron
p40
(dp41
g8
I00
sg9
I00
sg10
I01
sg11
F49.0
sg12
(irbf_knowledge
RbfKnowledge
p42
(dp43
g15
(lp44
I0
aI8
aI3
aI0
aI0
aI8
aI0
aI0
aI0
aI8
aI3
aI0
aI0
aI8
aI0
aI0
aI0
aI8
aI3
aI0
aI0
aI0
aI0
aI0
aI0
aI0
aI0
aI0
aI0
aI0
aI0
aI0
aI0
aI0
aI0
aI0
aI0
aI0
aI0
aI0
aI0
aI0
aI0
aI0
aI0
aI0
aI0
aI0
aI0
aI0
aI0
aI0
aI0
aI0
aI0
aI0
aI0
aI0
aI0
aI0
aI0
aI0
aI0
aI0
asg17
S'4'
p45
sg19
S'NoSet'
p46
sbsg21
I10
sba(irbf_neuron
RbfNeuron
p47
(dp48
g8
I00
sg9
I00
sg10
I01
sg11
F46.0
sg12
(irbf_knowledge
RbfKnowledge
p49
(dp50
g15
(lp51
I0
aI12
aI3
aI0
aI0
aI8
aI2
aI0
aI0
aI8
aI2
aI0
aI0
aI8
aI3
aI0
aI0
aI0
aI0
aI0
aI0
aI0
aI0
aI0
aI0
aI0
aI0
aI0
aI0
aI0
aI0
aI0
aI0
aI0
aI0
aI0
aI0
aI0
aI0
aI0
aI0
aI0
aI0
aI0
aI0
aI0
aI0
aI0
aI0
aI0
aI0
aI0
aI0
aI0
aI0
aI0
aI0
aI0
aI0
aI0
aI0
aI0
aI0
aI0
asg17
S'5'
p52
sg19
g46
sbsg21
I10
sba(irbf_neuron
RbfNeuron
p53
(dp54
g8
I00
sg9
I00
sg10
I01
sg11
F46.0
sg12
(irbf_knowledge
RbfKnowledge
p55
(dp56
g15
(lp57
I0
aI0
aI2
aI0
aI0
aI0
aI2
aI0
aI0
aI8
aI3
aI0
aI0
aI8
aI2
aI0
aI0
aI8
aI2
aI0
aI0
aI8
aI3
aI0
aI0
aI0
aI0
aI0
aI0
aI0
aI0
aI0
aI0
aI0
aI0
aI0
aI0
aI0
aI0
aI0
aI0
aI0
aI0
aI0
aI0
aI0
aI0
aI0
aI0
aI0
aI0
aI0
aI0
aI0
aI0
aI0
aI0
aI0
aI0
aI0
aI0
aI0
aI0
aI0
asg17
S'6'
p58
sg19
g46
sbsg21
I10
sba(irbf_neuron
RbfNeuron
p59
(dp60
g8
I00
sg9
I00
sg10
I01
sg11
F92.0
sg12
(irbf_knowledge
RbfKnowledge
p61
(dp62
g15
(lp63
I0
aI12
aI3
aI2
aI0
aI8
aI2
aI2
aI0
aI8
aI10
aI3
aI0
aI8
aI11
aI2
aI0
aI0
aI8
aI2
aI0
aI0
aI8
aI3
aI0
aI0
aI0
aI0
aI0
aI0
aI0
aI0
aI0
aI0
aI0
aI0
aI0
aI0
aI0
aI0
aI0
aI0
aI0
aI0
aI0
aI0
aI0
aI0
aI0
aI0
aI0
aI0
aI0
aI0
aI0
aI0
aI0
aI0
aI0
aI0
aI0
aI0
aI0
aI0
asg17
S'syll_0'
p64
sg19
g46
sbsg21
I10
sba(irbf_neuron
RbfNeuron
p65
(dp66
g8
I00
sg9
I01
sg10
I01
sg11
F0.0
sg12
(irbf_knowledge
RbfKnowledge
p67
(dp68
g15
(lp69
I0
aI0
aI0
aI0
aI0
aI0
aI0
aI0
aI0
aI0
aI0
aI0
aI0
aI0
aI0
aI0
aI0
aI0
aI0
aI0
aI0
aI0
aI0
aI0
aI0
aI0
aI0
aI0
aI0
aI0
aI0
aI0
aI0
aI0
aI0
aI0
aI0
aI0
aI0
aI0
aI0
aI0
aI0
aI0
aI0
aI0
aI0
aI0
aI0
aI0
aI0
aI0
aI0
aI0
aI0
aI0
aI0
aI0
aI0
aI0
aI0
aI0
aI0
aI0
asg17
S'7'
p70
sg19
S'NoSet'
p71
sbsg21
I10
sba(irbf_neuron
RbfNeuron
p72
(dp73
g8
I00
sg21
I24
sg10
I00
sba(irbf_neuron
RbfNeuron
p74
(dp75
g8
I00
sg21
I24
sg10
I00
sba(irbf_neuron
RbfNeuron
p76
(dp77
g8
I00
sg21
I24
sg10
I00
sba(irbf_neuron
RbfNeuron
p78
(dp79
g8
I00
sg21
I24
sg10
I00
sba(irbf_neuron
RbfNeuron
p80
(dp81
g8
I00
sg21
I24
sg10
I00
sba(irbf_neuron
RbfNeuron
p82
(dp83
g8
I00
sg21
I24
sg10
I00
sba(irbf_neuron
RbfNeuron
p84
(dp85
g8
I00
sg21
I24
sg10
I00
sba(irbf_neuron
RbfNeuron
p86
(dp87
g8
I00
sg21
I24
sg10
I00
sba(irbf_neuron
RbfNeuron
p88
(dp89
g8
I00
sg21
I24
sg10
I00
sba(irbf_neuron
RbfNeuron
p90
(dp91
g8
I00
sg21
I24
sg10
I00
sba(irbf_neuron
RbfNeuron
p92
(dp93
g8
I00
sg21
I24
sg10
I00
sba(irbf_neuron
RbfNeuron
p94
(dp95
g8
I00
sg21
I24
sg10
I00
sba(irbf_neuron
RbfNeuron
p96
(dp97
g8
I00
sg21
I24
sg10
I00
sba(irbf_neuron
RbfNeuron
p98
(dp99
g8
I00
sg21
I24
sg10
I00
sba(irbf_neuron
RbfNeuron
p100
(dp101
g8
I00
sg21
I24
sg10
I00
sba(irbf_neuron
RbfNeuron
p102
(dp103
g8
I00
sg21
I24
sg10
I00
sba(irbf_neuron
RbfNeuron
p104
(dp105
g8
I00
sg21
I24
sg10
I00
sba(irbf_neuron
RbfNeuron
p106
(dp107
g8
I00
sg21
I24
sg10
I00
sba(irbf_neuron
RbfNeuron
p108
(dp109
g8
I00
sg21
I24
sg10
I00
sba(irbf_neuron
RbfNeuron
p110
(dp111
g8
I00
sg21
I24
sg10
I00
sba(irbf_neuron
RbfNeuron
p112
(dp113
g8
I00
sg21
I24
sg10
I00
sba(irbf_neuron
RbfNeuron
p114
(dp115
g8
I00
sg21
I24
sg10
I00
sba(irbf_neuron
RbfNeuron
p116
(dp117
g8
I00
sg21
I24
sg10
I00
sba(irbf_neuron
RbfNeuron
p118
(dp119
g8
I00
sg21
I24
sg10
I00
sba(irbf_neuron
RbfNeuron
p120
(dp121
g8
I00
sg21
I24
sg10
I00
sba(irbf_neuron
RbfNeuron
p122
(dp123
g8
I00
sg21
I24
sg10
I00
sba(irbf_neuron
RbfNeuron
p124
(dp125
g8
I00
sg21
I24
sg10
I00
sba(irbf_neuron
RbfNeuron
p126
(dp127
g8
I00
sg21
I24
sg10
I00
sba(irbf_neuron
RbfNeuron
p128
(dp129
g8
I00
sg21
I24
sg10
I00
sba(irbf_neuron
RbfNeuron
p130
(dp131
g8
I00
sg21
I24
sg10
I00
sba(irbf_neuron
RbfNeuron
p132
(dp133
g8
I00
sg21
I24
sg10
I00
sba(irbf_neuron
RbfNeuron
p134
(dp135
g8
I00
sg21
I24
sg10
I00
sba(irbf_neuron
RbfNeuron
p136
(dp137
g8
I00
sg21
I24
sg10
I00
sba(irbf_neuron
RbfNeuron
p138
(dp139
g8
I00
sg21
I24
sg10
I00
sba(irbf_neuron
RbfNeuron
p140
(dp141
g8
I00
sg21
I24
sg10
I00
sba(irbf_neuron
RbfNeuron
p142
(dp143
g8
I00
sg21
I24
sg10
I00
sba(irbf_neuron
RbfNeuron
p144
(dp145
g8
I00
sg21
I24
sg10
I00
sba(irbf_neuron
RbfNeuron
p146
(dp147
g8
I00
sg21
I24
sg10
I00
sba(irbf_neuron
RbfNeuron
p148
(dp149
g8
I00
sg21
I24
sg10
I00
sba(irbf_neuron
RbfNeuron
p150
(dp151
g8
I00
sg21
I24
sg10
I00
sba(irbf_neuron
RbfNeuron
p152
(dp153
g8
I00
sg21
I24
sg10
I00
sba(irbf_neuron
RbfNeuron
p154
(dp155
g8
I00
sg21
I24
sg10
I00
sba(irbf_neuron
RbfNeuron
p156
(dp157
g8
I00
sg21
I24
sg10
I00
sba(irbf_neuron
RbfNeuron
p158
(dp159
g8
I00
sg21
I24
sg10
I00
sba(irbf_neuron
RbfNeuron
p160
(dp161
g8
I00
sg21
I24
sg10
I00
sba(irbf_neuron
RbfNeuron
p162
(dp163
g8
I00
sg21
I24
sg10
I00
sba(irbf_neuron
RbfNeuron
p164
(dp165
g8
I00
sg21
I24
sg10
I00
sba(irbf_neuron
RbfNeuron
p166
(dp167
g8
I00
sg21
I24
sg10
I00
sba(irbf_neuron
RbfNeuron
p168
(dp169
g8
I00
sg21
I24
sg10
I00
sba(irbf_neuron
RbfNeuron
p170
(dp171
g8
I00
sg21
I24
sg10
I00
sba(irbf_neuron
RbfNeuron
p172
(dp173
g8
I00
sg21
I24
sg10
I00
sba(irbf_neuron
RbfNeuron
p174
(dp175
g8
I00
sg21
I24
sg10
I00
sba(irbf_neuron
RbfNeuron
p176
(dp177
g8
I00
sg21
I24
sg10
I00
sba(irbf_neuron
RbfNeuron
p178
(dp179
g8
I00
sg21
I24
sg10
I00
sba(irbf_neuron
RbfNeuron
p180
(dp181
g8
I00
sg21
I24
sg10
I00
sba(irbf_neuron
RbfNeuron
p182
(dp183
g8
I00
sg21
I24
sg10
I00
sba(irbf_neuron
RbfNeuron
p184
(dp185
g8
I00
sg21
I24
sg10
I00
sba(irbf_neuron
RbfNeuron
p186
(dp187
g8
I00
sg21
I24
sg10
I00
sba(irbf_neuron
RbfNeuron
p188
(dp189
g8
I00
sg21
I24
sg10
I00
sba(irbf_neuron
RbfNeuron
p190
(dp191
g8
I00
sg21
I24
sg10
I00
sba(irbf_neuron
RbfNeuron
p192
(dp193
g8
I00
sg21
I24
sg10
I00
sba(irbf_neuron
RbfNeuron
p194
(dp195
g8
I00
sg21
I24
sg10
I00
sba(irbf_neuron
RbfNeuron
p196
(dp197
g8
I00
sg21
I24
sg10
I00
sba(irbf_neuron
RbfNeuron
p198
(dp199
g8
I00
sg21
I24
sg10
I00
sba(irbf_neuron
RbfNeuron
p200
(dp201
g8
I00
sg21
I24
sg10
I00
sba(irbf_neuron
RbfNeuron
p202
(dp203
g8
I00
sg21
I24
sg10
I00
sba(irbf_neuron
RbfNeuron
p204
(dp205
g8
I00
sg21
I24
sg10
I00
sba(irbf_neuron
RbfNeuron
p206
(dp207
g8
I00
sg21
I24
sg10
I00
sba(irbf_neuron
RbfNeuron
p208
(dp209
g8
I00
sg21
I24
sg10
I00
sba(irbf_neuron
RbfNeuron
p210
(dp211
g8
I00
sg21
I24
sg10
I00
sba(irbf_neuron
RbfNeuron
p212
(dp213
g8
I00
sg21
I24
sg10
I00
sba(irbf_neuron
RbfNeuron
p214
(dp215
g8
I00
sg21
I24
sg10
I00
sba(irbf_neuron
RbfNeuron
p216
(dp217
g8
I00
sg21
I24
sg10
I00
sba(irbf_neuron
RbfNeuron
p218
(dp219
g8
I00
sg21
I24
sg10
I00
sba(irbf_neuron
RbfNeuron
p220
(dp221
g8
I00
sg21
I24
sg10
I00
sba(irbf_neuron
RbfNeuron
p222
(dp223
g8
I00
sg21
I24
sg10
I00
sba(irbf_neuron
RbfNeuron
p224
(dp225
g8
I00
sg21
I24
sg10
I00
sba(irbf_neuron
RbfNeuron
p226
(dp227
g8
I00
sg21
I24
sg10
I00
sba(irbf_neuron
RbfNeuron
p228
(dp229
g8
I00
sg21
I24
sg10
I00
sba(irbf_neuron
RbfNeuron
p230
(dp231
g8
I00
sg21
I24
sg10
I00
sba(irbf_neuron
RbfNeuron
p232
(dp233
g8
I00
sg21
I24
sg10
I00
sba(irbf_neuron
RbfNeuron
p234
(dp235
g8
I00
sg21
I24
sg10
I00
sba(irbf_neuron
RbfNeuron
p236
(dp237
g8
I00
sg21
I24
sg10
I00
sba(irbf_neuron
RbfNeuron
p238
(dp239
g8
I00
sg21
I24
sg10
I00
sba(irbf_neuron
RbfNeuron
p240
(dp241
g8
I00
sg21
I24
sg10
I00
sba(irbf_neuron
RbfNeuron
p242
(dp243
g8
I00
sg21
I24
sg10
I00
sba(irbf_neuron
RbfNeuron
p244
(dp245
g8
I00
sg21
I24
sg10
I00
sba(irbf_neuron
RbfNeuron
p246
(dp247
g8
I00
sg21
I24
sg10
I00
sba(irbf_neuron
RbfNeuron
p248
(dp249
g8
I00
sg21
I24
sg10
I00
sba(irbf_neuron
RbfNeuron
p250
(dp251
g8
I00
sg21
I24
sg10
I00
sba(irbf_neuron
RbfNeuron
p252
(dp253
g8
I00
sg21
I24
sg10
I00
sbasS'_index_recognize'
p254
(lp255
I8
asS'_index_ready_to_learn'
p256
I9
sS'_last_learned_id'
p257
I8
sb.