(irel_network
RelNetwork
p0
(dp1
S'neuron_list'
p2
(lp3
ccopy_reg
_reconstructor
p4
(crel_network
RelNeuron
p5
c__builtin__
object
p6
Ntp7
Rp8
(dp9
S'_hit'
p10
I00
sS'_knowledge'
p11
(irel_network
RelKnowledge
p12
(dp13
S'_h_id'
p14
I0
sS'_s_id'
p15
I2
sS'_weight'
p16
I0
sbsS'_has_knowledge'
p17
I01
sbag4
(g5
g6
Ntp18
Rp19
(dp20
g10
I00
sg11
Nsg17
I00
sbag4
(g5
g6
Ntp21
Rp22
(dp23
g10
I00
sg11
Nsg17
I00
sbag4
(g5
g6
Ntp24
Rp25
(dp26
g10
I00
sg11
Nsg17
I00
sbag4
(g5
g6
Ntp27
Rp28
(dp29
g10
I00
sg11
Nsg17
I00
sbag4
(g5
g6
Ntp30
Rp31
(dp32
g10
I00
sg11
Nsg17
I00
sbag4
(g5
g6
Ntp33
Rp34
(dp35
g10
I00
sg11
Nsg17
I00
sbag4
(g5
g6
Ntp36
Rp37
(dp38
g10
I00
sg11
Nsg17
I00
sbag4
(g5
g6
Ntp39
Rp40
(dp41
g10
I00
sg11
Nsg17
I00
sbag4
(g5
g6
Ntp42
Rp43
(dp44
g10
I00
sg11
Nsg17
I00
sbag4
(g5
g6
Ntp45
Rp46
(dp47
g10
I00
sg11
Nsg17
I00
sbag4
(g5
g6
Ntp48
Rp49
(dp50
g10
I00
sg11
Nsg17
I00
sbag4
(g5
g6
Ntp51
Rp52
(dp53
g10
I00
sg11
Nsg17
I00
sbag4
(g5
g6
Ntp54
Rp55
(dp56
g10
I00
sg11
Nsg17
I00
sbag4
(g5
g6
Ntp57
Rp58
(dp59
g10
I00
sg11
Nsg17
I00
sbag4
(g5
g6
Ntp60
Rp61
(dp62
g10
I00
sg11
Nsg17
I00
sbag4
(g5
g6
Ntp63
Rp64
(dp65
g10
I00
sg11
Nsg17
I00
sbag4
(g5
g6
Ntp66
Rp67
(dp68
g10
I00
sg11
Nsg17
I00
sbag4
(g5
g6
Ntp69
Rp70
(dp71
g10
I00
sg11
Nsg17
I00
sbag4
(g5
g6
Ntp72
Rp73
(dp74
g10
I00
sg11
Nsg17
I00
sbag4
(g5
g6
Ntp75
Rp76
(dp77
g10
I00
sg11
Nsg17
I00
sbag4
(g5
g6
Ntp78
Rp79
(dp80
g10
I00
sg11
Nsg17
I00
sbag4
(g5
g6
Ntp81
Rp82
(dp83
g10
I00
sg11
Nsg17
I00
sbag4
(g5
g6
Ntp84
Rp85
(dp86
g10
I00
sg11
Nsg17
I00
sbag4
(g5
g6
Ntp87
Rp88
(dp89
g10
I00
sg11
Nsg17
I00
sbag4
(g5
g6
Ntp90
Rp91
(dp92
g10
I00
sg11
Nsg17
I00
sbag4
(g5
g6
Ntp93
Rp94
(dp95
g10
I00
sg11
Nsg17
I00
sbag4
(g5
g6
Ntp96
Rp97
(dp98
g10
I00
sg11
Nsg17
I00
sbag4
(g5
g6
Ntp99
Rp100
(dp101
g10
I00
sg11
Nsg17
I00
sbag4
(g5
g6
Ntp102
Rp103
(dp104
g10
I00
sg11
Nsg17
I00
sbag4
(g5
g6
Ntp105
Rp106
(dp107
g10
I00
sg11
Nsg17
I00
sbag4
(g5
g6
Ntp108
Rp109
(dp110
g10
I00
sg11
Nsg17
I00
sbag4
(g5
g6
Ntp111
Rp112
(dp113
g10
I00
sg11
Nsg17
I00
sbag4
(g5
g6
Ntp114
Rp115
(dp116
g10
I00
sg11
Nsg17
I00
sbag4
(g5
g6
Ntp117
Rp118
(dp119
g10
I00
sg11
Nsg17
I00
sbag4
(g5
g6
Ntp120
Rp121
(dp122
g10
I00
sg11
Nsg17
I00
sbag4
(g5
g6
Ntp123
Rp124
(dp125
g10
I00
sg11
Nsg17
I00
sbag4
(g5
g6
Ntp126
Rp127
(dp128
g10
I00
sg11
Nsg17
I00
sbag4
(g5
g6
Ntp129
Rp130
(dp131
g10
I00
sg11
Nsg17
I00
sbag4
(g5
g6
Ntp132
Rp133
(dp134
g10
I00
sg11
Nsg17
I00
sbag4
(g5
g6
Ntp135
Rp136
(dp137
g10
I00
sg11
Nsg17
I00
sbag4
(g5
g6
Ntp138
Rp139
(dp140
g10
I00
sg11
Nsg17
I00
sbag4
(g5
g6
Ntp141
Rp142
(dp143
g10
I00
sg11
Nsg17
I00
sbag4
(g5
g6
Ntp144
Rp145
(dp146
g10
I00
sg11
Nsg17
I00
sbag4
(g5
g6
Ntp147
Rp148
(dp149
g10
I00
sg11
Nsg17
I00
sbag4
(g5
g6
Ntp150
Rp151
(dp152
g10
I00
sg11
Nsg17
I00
sbag4
(g5
g6
Ntp153
Rp154
(dp155
g10
I00
sg11
Nsg17
I00
sbag4
(g5
g6
Ntp156
Rp157
(dp158
g10
I00
sg11
Nsg17
I00
sbag4
(g5
g6
Ntp159
Rp160
(dp161
g10
I00
sg11
Nsg17
I00
sbag4
(g5
g6
Ntp162
Rp163
(dp164
g10
I00
sg11
Nsg17
I00
sbag4
(g5
g6
Ntp165
Rp166
(dp167
g10
I00
sg11
Nsg17
I00
sbag4
(g5
g6
Ntp168
Rp169
(dp170
g10
I00
sg11
Nsg17
I00
sbag4
(g5
g6
Ntp171
Rp172
(dp173
g10
I00
sg11
Nsg17
I00
sbag4
(g5
g6
Ntp174
Rp175
(dp176
g10
I00
sg11
Nsg17
I00
sbag4
(g5
g6
Ntp177
Rp178
(dp179
g10
I00
sg11
Nsg17
I00
sbag4
(g5
g6
Ntp180
Rp181
(dp182
g10
I00
sg11
Nsg17
I00
sbag4
(g5
g6
Ntp183
Rp184
(dp185
g10
I00
sg11
Nsg17
I00
sbag4
(g5
g6
Ntp186
Rp187
(dp188
g10
I00
sg11
Nsg17
I00
sbag4
(g5
g6
Ntp189
Rp190
(dp191
g10
I00
sg11
Nsg17
I00
sbag4
(g5
g6
Ntp192
Rp193
(dp194
g10
I00
sg11
Nsg17
I00
sbag4
(g5
g6
Ntp195
Rp196
(dp197
g10
I00
sg11
Nsg17
I00
sbag4
(g5
g6
Ntp198
Rp199
(dp200
g10
I00
sg11
Nsg17
I00
sbag4
(g5
g6
Ntp201
Rp202
(dp203
g10
I00
sg11
Nsg17
I00
sbag4
(g5
g6
Ntp204
Rp205
(dp206
g10
I00
sg11
Nsg17
I00
sbag4
(g5
g6
Ntp207
Rp208
(dp209
g10
I00
sg11
Nsg17
I00
sbag4
(g5
g6
Ntp210
Rp211
(dp212
g10
I00
sg11
Nsg17
I00
sbag4
(g5
g6
Ntp213
Rp214
(dp215
g10
I00
sg11
Nsg17
I00
sbag4
(g5
g6
Ntp216
Rp217
(dp218
g10
I00
sg11
Nsg17
I00
sbag4
(g5
g6
Ntp219
Rp220
(dp221
g10
I00
sg11
Nsg17
I00
sbag4
(g5
g6
Ntp222
Rp223
(dp224
g10
I00
sg11
Nsg17
I00
sbag4
(g5
g6
Ntp225
Rp226
(dp227
g10
I00
sg11
Nsg17
I00
sbag4
(g5
g6
Ntp228
Rp229
(dp230
g10
I00
sg11
Nsg17
I00
sbag4
(g5
g6
Ntp231
Rp232
(dp233
g10
I00
sg11
Nsg17
I00
sbag4
(g5
g6
Ntp234
Rp235
(dp236
g10
I00
sg11
Nsg17
I00
sbag4
(g5
g6
Ntp237
Rp238
(dp239
g10
I00
sg11
Nsg17
I00
sbag4
(g5
g6
Ntp240
Rp241
(dp242
g10
I00
sg11
Nsg17
I00
sbag4
(g5
g6
Ntp243
Rp244
(dp245
g10
I00
sg11
Nsg17
I00
sbag4
(g5
g6
Ntp246
Rp247
(dp248
g10
I00
sg11
Nsg17
I00
sbag4
(g5
g6
Ntp249
Rp250
(dp251
g10
I00
sg11
Nsg17
I00
sbag4
(g5
g6
Ntp252
Rp253
(dp254
g10
I00
sg11
Nsg17
I00
sbag4
(g5
g6
Ntp255
Rp256
(dp257
g10
I00
sg11
Nsg17
I00
sbag4
(g5
g6
Ntp258
Rp259
(dp260
g10
I00
sg11
Nsg17
I00
sbag4
(g5
g6
Ntp261
Rp262
(dp263
g10
I00
sg11
Nsg17
I00
sbag4
(g5
g6
Ntp264
Rp265
(dp266
g10
I00
sg11
Nsg17
I00
sbag4
(g5
g6
Ntp267
Rp268
(dp269
g10
I00
sg11
Nsg17
I00
sbag4
(g5
g6
Ntp270
Rp271
(dp272
g10
I00
sg11
Nsg17
I00
sbag4
(g5
g6
Ntp273
Rp274
(dp275
g10
I00
sg11
Nsg17
I00
sbag4
(g5
g6
Ntp276
Rp277
(dp278
g10
I00
sg11
Nsg17
I00
sbag4
(g5
g6
Ntp279
Rp280
(dp281
g10
I00
sg11
Nsg17
I00
sbag4
(g5
g6
Ntp282
Rp283
(dp284
g10
I00
sg11
Nsg17
I00
sbag4
(g5
g6
Ntp285
Rp286
(dp287
g10
I00
sg11
Nsg17
I00
sbag4
(g5
g6
Ntp288
Rp289
(dp290
g10
I00
sg11
Nsg17
I00
sbag4
(g5
g6
Ntp291
Rp292
(dp293
g10
I00
sg11
Nsg17
I00
sbag4
(g5
g6
Ntp294
Rp295
(dp296
g10
I00
sg11
Nsg17
I00
sbag4
(g5
g6
Ntp297
Rp298
(dp299
g10
I00
sg11
Nsg17
I00
sbag4
(g5
g6
Ntp300
Rp301
(dp302
g10
I00
sg11
Nsg17
I00
sbag4
(g5
g6
Ntp303
Rp304
(dp305
g10
I00
sg11
Nsg17
I00
sbag4
(g5
g6
Ntp306
Rp307
(dp308
g10
I00
sg11
Nsg17
I00
sbag4
(g5
g6
Ntp309
Rp310
(dp311
g10
I00
sg11
Nsg17
I00
sbag4
(g5
g6
Ntp312
Rp313
(dp314
g10
I00
sg11
Nsg17
I00
sbasS'_index_ready_to_learn'
p315
I1
sb.