(icultural_network
CulturalNetwork
p0
(dp1
S'_clack'
p2
I00
sS'_index_ready_to_learn'
p3
I2
sS'group_list'
p4
(lp5
(icultural_network
CulturalGroup
p6
(dp7
S'_group'
p8
(lp9
(icultural_network
CulturalNeuron
p10
(dp11
S'_knowledge'
p12
I6
sS'_has_knowledge'
p13
I01
sba(icultural_network
CulturalNeuron
p14
(dp15
g12
I5
sg13
I01
sba(icultural_network
CulturalNeuron
p16
(dp17
g12
(irbf_knowledge
RbfKnowledge
p18
(dp19
S'_pattern'
p20
(lp21
I0
aI0
aI0
aI0
aI0
aI0
aI0
aI0
aI0
aI0
aI0
aI0
aI0
aI0
aI0
aI0
aI0
aI4
aI0
aI0
aI8
aI15
aI0
aI1
aI8
aI11
aI1
aI1
aI0
aI10
aI1
aI1
aI0
aI14
aI12
aI1
aI0
aI0
aI6
aI3
aI0
aI0
aI3
aI1
aI0
aI0
aI2
aI1
aI0
aI0
aI10
aI1
aI0
aI0
aI12
aI0
aI0
aI0
aI0
aI0
aI0
aI0
aI0
aI0
asS'_class'
p22
Vpa
p23
sS'_set'
p24
S'NoSet'
p25
sbsg13
I01
sbasS'_index_bip'
p26
I1
sba(icultural_network
CulturalGroup
p27
(dp28
g8
(lp29
(icultural_network
CulturalNeuron
p30
(dp31
g12
I5
sg13
I01
sba(icultural_network
CulturalNeuron
p32
(dp33
g12
(irbf_knowledge
RbfKnowledge
p34
(dp35
g20
(lp36
I0
aI0
aI0
aI0
aI0
aI0
aI0
aI0
aI0
aI0
aI0
aI0
aI0
aI0
aI0
aI0
aI0
aI14
aI7
aI0
aI0
aI9
aI13
aI0
aI0
aI9
aI8
aI0
aI0
aI9
aI8
aI0
aI8
aI8
aI12
aI0
aI0
aI8
aI4
aI0
aI12
aI8
aI7
aI0
aI0
aI0
aI0
aI0
aI0
aI0
aI0
aI0
aI0
aI0
aI0
aI0
aI0
aI0
aI0
aI0
aI0
aI0
aI0
aI0
asg22
Va
p37
sg24
S'NoSet'
p38
sbsg13
I01
sbasg26
I0
sba(icultural_network
CulturalGroup
p39
(dp40
g8
(lp41
sg26
I0
sba(icultural_network
CulturalGroup
p42
(dp43
g8
(lp44
sg26
I0
sba(icultural_network
CulturalGroup
p45
(dp46
g8
(lp47
sg26
I0
sba(icultural_network
CulturalGroup
p48
(dp49
g8
(lp50
sg26
I0
sba(icultural_network
CulturalGroup
p51
(dp52
g8
(lp53
sg26
I0
sba(icultural_network
CulturalGroup
p54
(dp55
g8
(lp56
sg26
I0
sba(icultural_network
CulturalGroup
p57
(dp58
g8
(lp59
sg26
I0
sba(icultural_network
CulturalGroup
p60
(dp61
g8
(lp62
sg26
I0
sba(icultural_network
CulturalGroup
p63
(dp64
g8
(lp65
sg26
I0
sba(icultural_network
CulturalGroup
p66
(dp67
g8
(lp68
sg26
I0
sba(icultural_network
CulturalGroup
p69
(dp70
g8
(lp71
sg26
I0
sba(icultural_network
CulturalGroup
p72
(dp73
g8
(lp74
sg26
I0
sba(icultural_network
CulturalGroup
p75
(dp76
g8
(lp77
sg26
I0
sba(icultural_network
CulturalGroup
p78
(dp79
g8
(lp80
sg26
I0
sba(icultural_network
CulturalGroup
p81
(dp82
g8
(lp83
sg26
I0
sba(icultural_network
CulturalGroup
p84
(dp85
g8
(lp86
sg26
I0
sba(icultural_network
CulturalGroup
p87
(dp88
g8
(lp89
sg26
I0
sba(icultural_network
CulturalGroup
p90
(dp91
g8
(lp92
sg26
I0
sba(icultural_network
CulturalGroup
p93
(dp94
g8
(lp95
sg26
I0
sba(icultural_network
CulturalGroup
p96
(dp97
g8
(lp98
sg26
I0
sba(icultural_network
CulturalGroup
p99
(dp100
g8
(lp101
sg26
I0
sba(icultural_network
CulturalGroup
p102
(dp103
g8
(lp104
sg26
I0
sba(icultural_network
CulturalGroup
p105
(dp106
g8
(lp107
sg26
I0
sba(icultural_network
CulturalGroup
p108
(dp109
g8
(lp110
sg26
I0
sba(icultural_network
CulturalGroup
p111
(dp112
g8
(lp113
sg26
I0
sba(icultural_network
CulturalGroup
p114
(dp115
g8
(lp116
sg26
I0
sba(icultural_network
CulturalGroup
p117
(dp118
g8
(lp119
sg26
I0
sba(icultural_network
CulturalGroup
p120
(dp121
g8
(lp122
sg26
I0
sba(icultural_network
CulturalGroup
p123
(dp124
g8
(lp125
sg26
I0
sba(icultural_network
CulturalGroup
p126
(dp127
g8
(lp128
sg26
I0
sba(icultural_network
CulturalGroup
p129
(dp130
g8
(lp131
sg26
I0
sba(icultural_network
CulturalGroup
p132
(dp133
g8
(lp134
sg26
I0
sba(icultural_network
CulturalGroup
p135
(dp136
g8
(lp137
sg26
I0
sba(icultural_network
CulturalGroup
p138
(dp139
g8
(lp140
sg26
I0
sba(icultural_network
CulturalGroup
p141
(dp142
g8
(lp143
sg26
I0
sba(icultural_network
CulturalGroup
p144
(dp145
g8
(lp146
sg26
I0
sba(icultural_network
CulturalGroup
p147
(dp148
g8
(lp149
sg26
I0
sba(icultural_network
CulturalGroup
p150
(dp151
g8
(lp152
sg26
I0
sba(icultural_network
CulturalGroup
p153
(dp154
g8
(lp155
sg26
I0
sba(icultural_network
CulturalGroup
p156
(dp157
g8
(lp158
sg26
I0
sba(icultural_network
CulturalGroup
p159
(dp160
g8
(lp161
sg26
I0
sba(icultural_network
CulturalGroup
p162
(dp163
g8
(lp164
sg26
I0
sba(icultural_network
CulturalGroup
p165
(dp166
g8
(lp167
sg26
I0
sba(icultural_network
CulturalGroup
p168
(dp169
g8
(lp170
sg26
I0
sba(icultural_network
CulturalGroup
p171
(dp172
g8
(lp173
sg26
I0
sba(icultural_network
CulturalGroup
p174
(dp175
g8
(lp176
sg26
I0
sba(icultural_network
CulturalGroup
p177
(dp178
g8
(lp179
sg26
I0
sba(icultural_network
CulturalGroup
p180
(dp181
g8
(lp182
sg26
I0
sba(icultural_network
CulturalGroup
p183
(dp184
g8
(lp185
sg26
I0
sba(icultural_network
CulturalGroup
p186
(dp187
g8
(lp188
sg26
I0
sba(icultural_network
CulturalGroup
p189
(dp190
g8
(lp191
sg26
I0
sba(icultural_network
CulturalGroup
p192
(dp193
g8
(lp194
sg26
I0
sba(icultural_network
CulturalGroup
p195
(dp196
g8
(lp197
sg26
I0
sba(icultural_network
CulturalGroup
p198
(dp199
g8
(lp200
sg26
I0
sba(icultural_network
CulturalGroup
p201
(dp202
g8
(lp203
sg26
I0
sba(icultural_network
CulturalGroup
p204
(dp205
g8
(lp206
sg26
I0
sba(icultural_network
CulturalGroup
p207
(dp208
g8
(lp209
sg26
I0
sba(icultural_network
CulturalGroup
p210
(dp211
g8
(lp212
sg26
I0
sba(icultural_network
CulturalGroup
p213
(dp214
g8
(lp215
sg26
I0
sba(icultural_network
CulturalGroup
p216
(dp217
g8
(lp218
sg26
I0
sba(icultural_network
CulturalGroup
p219
(dp220
g8
(lp221
sg26
I0
sba(icultural_network
CulturalGroup
p222
(dp223
g8
(lp224
sg26
I0
sba(icultural_network
CulturalGroup
p225
(dp226
g8
(lp227
sg26
I0
sba(icultural_network
CulturalGroup
p228
(dp229
g8
(lp230
sg26
I0
sba(icultural_network
CulturalGroup
p231
(dp232
g8
(lp233
sg26
I0
sba(icultural_network
CulturalGroup
p234
(dp235
g8
(lp236
sg26
I0
sba(icultural_network
CulturalGroup
p237
(dp238
g8
(lp239
sg26
I0
sba(icultural_network
CulturalGroup
p240
(dp241
g8
(lp242
sg26
I0
sba(icultural_network
CulturalGroup
p243
(dp244
g8
(lp245
sg26
I0
sba(icultural_network
CulturalGroup
p246
(dp247
g8
(lp248
sg26
I0
sba(icultural_network
CulturalGroup
p249
(dp250
g8
(lp251
sg26
I0
sba(icultural_network
CulturalGroup
p252
(dp253
g8
(lp254
sg26
I0
sba(icultural_network
CulturalGroup
p255
(dp256
g8
(lp257
sg26
I0
sba(icultural_network
CulturalGroup
p258
(dp259
g8
(lp260
sg26
I0
sba(icultural_network
CulturalGroup
p261
(dp262
g8
(lp263
sg26
I0
sba(icultural_network
CulturalGroup
p264
(dp265
g8
(lp266
sg26
I0
sba(icultural_network
CulturalGroup
p267
(dp268
g8
(lp269
sg26
I0
sba(icultural_network
CulturalGroup
p270
(dp271
g8
(lp272
sg26
I0
sba(icultural_network
CulturalGroup
p273
(dp274
g8
(lp275
sg26
I0
sba(icultural_network
CulturalGroup
p276
(dp277
g8
(lp278
sg26
I0
sba(icultural_network
CulturalGroup
p279
(dp280
g8
(lp281
sg26
I0
sba(icultural_network
CulturalGroup
p282
(dp283
g8
(lp284
sg26
I0
sba(icultural_network
CulturalGroup
p285
(dp286
g8
(lp287
sg26
I0
sba(icultural_network
CulturalGroup
p288
(dp289
g8
(lp290
sg26
I0
sba(icultural_network
CulturalGroup
p291
(dp292
g8
(lp293
sg26
I0
sba(icultural_network
CulturalGroup
p294
(dp295
g8
(lp296
sg26
I0
sba(icultural_network
CulturalGroup
p297
(dp298
g8
(lp299
sg26
I0
sba(icultural_network
CulturalGroup
p300
(dp301
g8
(lp302
sg26
I0
sba(icultural_network
CulturalGroup
p303
(dp304
g8
(lp305
sg26
I0
sba(icultural_network
CulturalGroup
p306
(dp307
g8
(lp308
sg26
I0
sba(icultural_network
CulturalGroup
p309
(dp310
g8
(lp311
sg26
I0
sba(icultural_network
CulturalGroup
p312
(dp313
g8
(lp314
sg26
I0
sba(icultural_network
CulturalGroup
p315
(dp316
g8
(lp317
sg26
I0
sba(icultural_network
CulturalGroup
p318
(dp319
g8
(lp320
sg26
I0
sba(icultural_network
CulturalGroup
p321
(dp322
g8
(lp323
sg26
I0
sba(icultural_network
CulturalGroup
p324
(dp325
g8
(lp326
sg26
I0
sba(icultural_network
CulturalGroup
p327
(dp328
g8
(lp329
sg26
I0
sba(icultural_network
CulturalGroup
p330
(dp331
g8
(lp332
sg26
I0
sbasS'_recognized_indexes'
p333
(lp334
sb.