(icultural_network
CulturalNetwork
p0
(dp1
S'_clack'
p2
I00
sS'_index_ready_to_learn'
p3
I1
sS'group_list'
p4
(lp5
(icultural_network
CulturalGroup
p6
(dp7
S'_index_bip'
p8
I0
sS'group'
p9
(lp10
ccopy_reg
_reconstructor
p11
(ccultural_network
CulturalNeuron
p12
c__builtin__
object
p13
Ntp14
Rp15
(dp16
S'_knowledge'
p17
I1
sS'_has_knowledge'
p18
I01
sbag11
(g12
g13
Ntp19
Rp20
(dp21
g17
I0
sg18
I01
sbag11
(g12
g13
Ntp22
Rp23
(dp24
g17
(irbf_network
RbfKnowledge
p25
(dp26
S'_pattern'
p27
(lp28
I0
aI0
aI0
aI0
aI0
aI0
aI0
aI0
aI0
aI0
aI0
aI0
aI0
aI0
aI0
aI0
aI0
aI0
aI0
aI0
aI6
aI2
aI2
aI0
aI8
aI15
aI12
aI0
aI8
aI12
aI0
aI1
aI8
aI4
aI0
aI1
aI8
aI5
aI0
aI1
aI0
aI3
aI8
aI0
aI0
aI0
aI0
aI0
aI0
aI0
aI0
aI0
aI0
aI0
aI0
aI0
aI0
aI0
aI0
aI0
aI0
aI0
aI0
aI0
asS'_class'
p29
Vca
p30
sS'_set'
p31
S'NoSet'
p32
sbsg18
I01
sbasba(icultural_network
CulturalGroup
p33
(dp34
g8
I0
sg9
(lp35
sba(icultural_network
CulturalGroup
p36
(dp37
g8
I0
sg9
(lp38
sba(icultural_network
CulturalGroup
p39
(dp40
g8
I0
sg9
(lp41
sba(icultural_network
CulturalGroup
p42
(dp43
g8
I0
sg9
(lp44
sba(icultural_network
CulturalGroup
p45
(dp46
g8
I0
sg9
(lp47
sba(icultural_network
CulturalGroup
p48
(dp49
g8
I0
sg9
(lp50
sba(icultural_network
CulturalGroup
p51
(dp52
g8
I0
sg9
(lp53
sba(icultural_network
CulturalGroup
p54
(dp55
g8
I0
sg9
(lp56
sba(icultural_network
CulturalGroup
p57
(dp58
g8
I0
sg9
(lp59
sba(icultural_network
CulturalGroup
p60
(dp61
g8
I0
sg9
(lp62
sba(icultural_network
CulturalGroup
p63
(dp64
g8
I0
sg9
(lp65
sba(icultural_network
CulturalGroup
p66
(dp67
g8
I0
sg9
(lp68
sba(icultural_network
CulturalGroup
p69
(dp70
g8
I0
sg9
(lp71
sba(icultural_network
CulturalGroup
p72
(dp73
g8
I0
sg9
(lp74
sba(icultural_network
CulturalGroup
p75
(dp76
g8
I0
sg9
(lp77
sba(icultural_network
CulturalGroup
p78
(dp79
g8
I0
sg9
(lp80
sba(icultural_network
CulturalGroup
p81
(dp82
g8
I0
sg9
(lp83
sba(icultural_network
CulturalGroup
p84
(dp85
g8
I0
sg9
(lp86
sba(icultural_network
CulturalGroup
p87
(dp88
g8
I0
sg9
(lp89
sba(icultural_network
CulturalGroup
p90
(dp91
g8
I0
sg9
(lp92
sba(icultural_network
CulturalGroup
p93
(dp94
g8
I0
sg9
(lp95
sba(icultural_network
CulturalGroup
p96
(dp97
g8
I0
sg9
(lp98
sba(icultural_network
CulturalGroup
p99
(dp100
g8
I0
sg9
(lp101
sba(icultural_network
CulturalGroup
p102
(dp103
g8
I0
sg9
(lp104
sba(icultural_network
CulturalGroup
p105
(dp106
g8
I0
sg9
(lp107
sba(icultural_network
CulturalGroup
p108
(dp109
g8
I0
sg9
(lp110
sba(icultural_network
CulturalGroup
p111
(dp112
g8
I0
sg9
(lp113
sba(icultural_network
CulturalGroup
p114
(dp115
g8
I0
sg9
(lp116
sba(icultural_network
CulturalGroup
p117
(dp118
g8
I0
sg9
(lp119
sba(icultural_network
CulturalGroup
p120
(dp121
g8
I0
sg9
(lp122
sba(icultural_network
CulturalGroup
p123
(dp124
g8
I0
sg9
(lp125
sba(icultural_network
CulturalGroup
p126
(dp127
g8
I0
sg9
(lp128
sba(icultural_network
CulturalGroup
p129
(dp130
g8
I0
sg9
(lp131
sba(icultural_network
CulturalGroup
p132
(dp133
g8
I0
sg9
(lp134
sba(icultural_network
CulturalGroup
p135
(dp136
g8
I0
sg9
(lp137
sba(icultural_network
CulturalGroup
p138
(dp139
g8
I0
sg9
(lp140
sba(icultural_network
CulturalGroup
p141
(dp142
g8
I0
sg9
(lp143
sba(icultural_network
CulturalGroup
p144
(dp145
g8
I0
sg9
(lp146
sba(icultural_network
CulturalGroup
p147
(dp148
g8
I0
sg9
(lp149
sba(icultural_network
CulturalGroup
p150
(dp151
g8
I0
sg9
(lp152
sba(icultural_network
CulturalGroup
p153
(dp154
g8
I0
sg9
(lp155
sba(icultural_network
CulturalGroup
p156
(dp157
g8
I0
sg9
(lp158
sba(icultural_network
CulturalGroup
p159
(dp160
g8
I0
sg9
(lp161
sba(icultural_network
CulturalGroup
p162
(dp163
g8
I0
sg9
(lp164
sba(icultural_network
CulturalGroup
p165
(dp166
g8
I0
sg9
(lp167
sba(icultural_network
CulturalGroup
p168
(dp169
g8
I0
sg9
(lp170
sba(icultural_network
CulturalGroup
p171
(dp172
g8
I0
sg9
(lp173
sba(icultural_network
CulturalGroup
p174
(dp175
g8
I0
sg9
(lp176
sba(icultural_network
CulturalGroup
p177
(dp178
g8
I0
sg9
(lp179
sba(icultural_network
CulturalGroup
p180
(dp181
g8
I0
sg9
(lp182
sba(icultural_network
CulturalGroup
p183
(dp184
g8
I0
sg9
(lp185
sba(icultural_network
CulturalGroup
p186
(dp187
g8
I0
sg9
(lp188
sba(icultural_network
CulturalGroup
p189
(dp190
g8
I0
sg9
(lp191
sba(icultural_network
CulturalGroup
p192
(dp193
g8
I0
sg9
(lp194
sba(icultural_network
CulturalGroup
p195
(dp196
g8
I0
sg9
(lp197
sba(icultural_network
CulturalGroup
p198
(dp199
g8
I0
sg9
(lp200
sba(icultural_network
CulturalGroup
p201
(dp202
g8
I0
sg9
(lp203
sba(icultural_network
CulturalGroup
p204
(dp205
g8
I0
sg9
(lp206
sba(icultural_network
CulturalGroup
p207
(dp208
g8
I0
sg9
(lp209
sba(icultural_network
CulturalGroup
p210
(dp211
g8
I0
sg9
(lp212
sba(icultural_network
CulturalGroup
p213
(dp214
g8
I0
sg9
(lp215
sba(icultural_network
CulturalGroup
p216
(dp217
g8
I0
sg9
(lp218
sba(icultural_network
CulturalGroup
p219
(dp220
g8
I0
sg9
(lp221
sba(icultural_network
CulturalGroup
p222
(dp223
g8
I0
sg9
(lp224
sba(icultural_network
CulturalGroup
p225
(dp226
g8
I0
sg9
(lp227
sba(icultural_network
CulturalGroup
p228
(dp229
g8
I0
sg9
(lp230
sba(icultural_network
CulturalGroup
p231
(dp232
g8
I0
sg9
(lp233
sba(icultural_network
CulturalGroup
p234
(dp235
g8
I0
sg9
(lp236
sba(icultural_network
CulturalGroup
p237
(dp238
g8
I0
sg9
(lp239
sba(icultural_network
CulturalGroup
p240
(dp241
g8
I0
sg9
(lp242
sba(icultural_network
CulturalGroup
p243
(dp244
g8
I0
sg9
(lp245
sba(icultural_network
CulturalGroup
p246
(dp247
g8
I0
sg9
(lp248
sba(icultural_network
CulturalGroup
p249
(dp250
g8
I0
sg9
(lp251
sba(icultural_network
CulturalGroup
p252
(dp253
g8
I0
sg9
(lp254
sba(icultural_network
CulturalGroup
p255
(dp256
g8
I0
sg9
(lp257
sba(icultural_network
CulturalGroup
p258
(dp259
g8
I0
sg9
(lp260
sba(icultural_network
CulturalGroup
p261
(dp262
g8
I0
sg9
(lp263
sba(icultural_network
CulturalGroup
p264
(dp265
g8
I0
sg9
(lp266
sba(icultural_network
CulturalGroup
p267
(dp268
g8
I0
sg9
(lp269
sba(icultural_network
CulturalGroup
p270
(dp271
g8
I0
sg9
(lp272
sba(icultural_network
CulturalGroup
p273
(dp274
g8
I0
sg9
(lp275
sba(icultural_network
CulturalGroup
p276
(dp277
g8
I0
sg9
(lp278
sba(icultural_network
CulturalGroup
p279
(dp280
g8
I0
sg9
(lp281
sba(icultural_network
CulturalGroup
p282
(dp283
g8
I0
sg9
(lp284
sba(icultural_network
CulturalGroup
p285
(dp286
g8
I0
sg9
(lp287
sba(icultural_network
CulturalGroup
p288
(dp289
g8
I0
sg9
(lp290
sba(icultural_network
CulturalGroup
p291
(dp292
g8
I0
sg9
(lp293
sba(icultural_network
CulturalGroup
p294
(dp295
g8
I0
sg9
(lp296
sba(icultural_network
CulturalGroup
p297
(dp298
g8
I0
sg9
(lp299
sba(icultural_network
CulturalGroup
p300
(dp301
g8
I0
sg9
(lp302
sba(icultural_network
CulturalGroup
p303
(dp304
g8
I0
sg9
(lp305
sba(icultural_network
CulturalGroup
p306
(dp307
g8
I0
sg9
(lp308
sba(icultural_network
CulturalGroup
p309
(dp310
g8
I0
sg9
(lp311
sba(icultural_network
CulturalGroup
p312
(dp313
g8
I0
sg9
(lp314
sba(icultural_network
CulturalGroup
p315
(dp316
g8
I0
sg9
(lp317
sba(icultural_network
CulturalGroup
p318
(dp319
g8
I0
sg9
(lp320
sba(icultural_network
CulturalGroup
p321
(dp322
g8
I0
sg9
(lp323
sba(icultural_network
CulturalGroup
p324
(dp325
g8
I0
sg9
(lp326
sba(icultural_network
CulturalGroup
p327
(dp328
g8
I0
sg9
(lp329
sbasS'_recognized_indexes'
p330
(lp331
sb.