(icultural_network
CulturalNetwork
p0
(dp1
S'_clack'
p2
I00
sS'_index_ready_to_learn'
p3
I15
sS'group_list'
p4
(lp5
(icultural_network
CulturalGroup
p6
(dp7
S'_group'
p8
(lp9
(icultural_network
CulturalNeuron
p10
(dp11
S'_knowledge'
p12
I1
sS'_has_knowledge'
p13
I01
sba(icultural_network
CulturalNeuron
p14
(dp15
g12
I0
sg13
I01
sba(icultural_network
CulturalNeuron
p16
(dp17
g12
(irbf_knowledge
RbfKnowledge
p18
(dp19
S'_pattern'
p20
(lp21
I0
aI0
aI0
aI0
aI0
aI0
aI0
aI0
aI0
aI0
aI0
aI0
aI0
aI0
aI0
aI0
aI0
aI0
aI12
aI1
aI8
aI15
aI6
aI1
aI0
aI9
aI2
aI1
aI0
aI9
aI2
aI1
aI0
aI13
aI14
aI1
aI8
aI13
aI15
aI1
aI8
aI7
aI0
aI1
aI0
aI0
aI8
aI1
aI0
aI0
aI8
aI0
aI0
aI0
aI8
aI0
aI0
aI0
aI0
aI0
aI0
aI0
aI0
aI0
asS'_class'
p22
Vba
p23
sS'_set'
p24
S'NoSet'
p25
sbsg13
I01
sbasS'_index_bip'
p26
I1
sba(icultural_network
CulturalGroup
p27
(dp28
g8
(lp29
(icultural_network
CulturalNeuron
p30
(dp31
g12
I3
sg13
I01
sba(icultural_network
CulturalNeuron
p32
(dp33
g12
I0
sg13
I01
sba(icultural_network
CulturalNeuron
p34
(dp35
g12
(irbf_knowledge
RbfKnowledge
p36
(dp37
g20
(lp38
I0
aI0
aI0
aI0
aI0
aI0
aI0
aI0
aI0
aI0
aI0
aI0
aI0
aI0
aI14
aI1
aI8
aI7
aI3
aI0
aI12
aI5
aI1
aI0
aI0
aI5
aI1
aI0
aI0
aI5
aI14
aI1
aI0
aI5
aI0
aI1
aI0
aI7
aI0
aI1
aI0
aI0
aI0
aI1
aI0
aI0
aI8
aI1
aI0
aI0
aI4
aI0
aI0
aI0
aI0
aI0
aI0
aI0
aI0
aI0
aI0
aI0
aI0
aI0
asg22
Vsa
p39
sg24
S'NoSet'
p40
sbsg13
I01
sbasg26
I1
sba(icultural_network
CulturalGroup
p41
(dp42
g8
(lp43
(icultural_network
CulturalNeuron
p44
(dp45
g12
I2
sg13
I01
sba(icultural_network
CulturalNeuron
p46
(dp47
g12
I0
sg13
I01
sba(icultural_network
CulturalNeuron
p48
(dp49
g12
(irbf_knowledge
RbfKnowledge
p50
(dp51
g20
(lp52
I0
aI0
aI0
aI0
aI0
aI0
aI0
aI0
aI0
aI0
aI0
aI0
aI0
aI0
aI0
aI0
aI0
aI0
aI0
aI0
aI0
aI0
aI2
aI0
aI8
aI15
aI15
aI0
aI0
aI9
aI9
aI0
aI0
aI13
aI8
aI0
aI0
aI15
aI8
aI0
aI0
aI7
aI8
aI0
aI0
aI0
aI4
aI0
aI0
aI0
aI0
aI0
aI0
aI0
aI0
aI0
aI0
aI0
aI0
aI0
aI0
aI0
aI0
aI0
asg22
Vca
p53
sg24
g40
sbsg13
I01
sbasg26
I1
sba(icultural_network
CulturalGroup
p54
(dp55
g8
(lp56
(icultural_network
CulturalNeuron
p57
(dp58
g12
I10
sg13
I01
sba(icultural_network
CulturalNeuron
p59
(dp60
g12
I0
sg13
I01
sba(icultural_network
CulturalNeuron
p61
(dp62
g12
(irbf_knowledge
RbfKnowledge
p63
(dp64
g20
(lp65
I0
aI0
aI0
aI0
aI0
aI0
aI0
aI0
aI0
aI0
aI0
aI0
aI0
aI0
aI0
aI0
aI8
aI2
aI8
aI0
aI8
aI7
aI8
aI0
aI0
aI5
aI8
aI0
aI0
aI3
aI3
aI1
aI0
aI8
aI9
aI0
aI0
aI8
aI0
aI0
aI0
aI0
aI7
aI0
aI0
aI0
aI0
aI0
aI0
aI0
aI0
aI0
aI0
aI0
aI0
aI0
aI0
aI0
aI0
aI0
aI0
aI0
aI0
aI0
asg22
Vpa
p66
sg24
S'NoSet'
p67
sbsg13
I01
sbasg26
I1
sba(icultural_network
CulturalGroup
p68
(dp69
g8
(lp70
(icultural_network
CulturalNeuron
p71
(dp72
g12
I0
sg13
I01
sba(icultural_network
CulturalNeuron
p73
(dp74
g12
I0
sg13
I01
sba(icultural_network
CulturalNeuron
p75
(dp76
g12
(irbf_knowledge
RbfKnowledge
p77
(dp78
g20
(lp79
I0
aI0
aI0
aI0
aI0
aI0
aI0
aI0
aI0
aI0
aI0
aI0
aI0
aI0
aI0
aI0
aI0
aI0
aI0
aI0
aI0
aI0
aI0
aI0
aI0
aI0
aI0
aI0
aI0
aI0
aI0
aI0
aI0
aI0
aI0
aI0
aI0
aI0
aI0
aI0
aI0
aI0
aI0
aI0
aI0
aI0
aI0
aI0
aI0
aI0
aI0
aI0
aI0
aI0
aI0
aI0
aI0
aI0
aI0
aI0
aI0
aI0
aI0
aI0
asg22
V
p80
sg24
S'NoSet'
p81
sbsg13
I01
sbasg26
I1
sba(icultural_network
CulturalGroup
p82
(dp83
g8
(lp84
(icultural_network
CulturalNeuron
p85
(dp86
g12
I14
sg13
I01
sba(icultural_network
CulturalNeuron
p87
(dp88
g12
(irbf_knowledge
RbfKnowledge
p89
(dp90
g20
(lp91
I0
aI0
aI0
aI0
aI0
aI0
aI0
aI0
aI0
aI11
aI3
aI0
aI0
aI14
aI7
aI0
aI0
aI12
aI6
aI0
aI0
aI12
aI6
aI0
aI0
aI4
aI6
aI0
aI0
aI4
aI6
aI0
aI0
aI12
aI3
aI0
aI0
aI12
aI1
aI0
aI0
aI0
aI0
aI0
aI0
aI0
aI0
aI0
aI0
aI0
aI0
aI0
aI0
aI0
aI0
aI0
aI0
aI0
aI0
aI0
aI0
aI0
aI0
aI0
asg22
Va
p92
sg24
S'NoSet'
p93
sbsg13
I01
sbasg26
I1
sba(icultural_network
CulturalGroup
p94
(dp95
g8
(lp96
(icultural_network
CulturalNeuron
p97
(dp98
g12
I15
sg13
I01
sba(icultural_network
CulturalNeuron
p99
(dp100
g12
(irbf_knowledge
RbfKnowledge
p101
(dp102
g20
(lp103
I0
aI0
aI0
aI0
aI0
aI0
aI0
aI0
aI0
aI0
aI0
aI0
aI0
aI12
aI0
aI0
aI0
aI10
aI3
aI0
aI0
aI1
aI6
aI0
aI0
aI0
aI7
aI0
aI0
aI8
aI5
aI0
aI0
aI8
aI4
aI0
aI0
aI8
aI4
aI0
aI0
aI8
aI4
aI0
aI0
aI0
aI7
aI0
aI0
aI0
aI0
aI0
aI0
aI0
aI0
aI0
aI0
aI0
aI0
aI0
aI0
aI0
aI0
aI0
asg22
Vee
p104
sg24
S'NoSet'
p105
sbsg13
I01
sbasg26
I1
sba(icultural_network
CulturalGroup
p106
(dp107
g8
(lp108
(icultural_network
CulturalNeuron
p109
(dp110
g12
I18
sg13
I01
sba(icultural_network
CulturalNeuron
p111
(dp112
g12
(irbf_knowledge
RbfKnowledge
p113
(dp114
g20
(lp115
I0
aI0
aI0
aI0
aI0
aI0
aI0
aI0
aI0
aI0
aI0
aI0
aI0
aI0
aI0
aI0
aI0
aI0
aI0
aI0
aI0
aI14
aI1
aI0
aI0
aI3
aI3
aI0
aI0
aI1
aI2
aI0
aI0
aI1
aI0
aI0
aI0
aI9
aI0
aI0
aI0
aI9
aI1
aI0
aI0
aI1
aI8
aI3
aI0
aI0
aI8
aI6
aI0
aI2
aI0
aI6
aI0
aI0
aI0
aI0
aI0
aI0
aI0
aI0
asg22
Vcinco
p116
sg24
S'NoSet'
p117
sbsg13
I01
sbasg26
I1
sba(icultural_network
CulturalGroup
p118
(dp119
g8
(lp120
(icultural_network
CulturalNeuron
p121
(dp122
g12
I20
sg13
I01
sba(icultural_network
CulturalNeuron
p123
(dp124
g12
(irbf_knowledge
RbfKnowledge
p125
(dp126
g20
(lp127
I0
aI0
aI0
aI0
aI0
aI0
aI0
aI0
aI0
aI0
aI0
aI0
aI0
aI0
aI0
aI0
aI0
aI0
aI0
aI0
aI0
aI0
aI0
aI0
aI8
aI15
aI1
aI0
aI0
aI7
aI1
aI0
aI0
aI2
aI1
aI0
aI0
aI2
aI1
aI0
aI0
aI10
aI1
aI0
aI0
aI14
aI1
aI0
aI0
aI0
aI0
aI0
aI0
aI0
aI0
aI0
aI0
aI0
aI0
aI0
aI0
aI0
aI0
aI0
asg22
Va
p128
sg24
S'NoSet'
p129
sbsg13
I01
sbasg26
I1
sba(icultural_network
CulturalGroup
p130
(dp131
g8
(lp132
(icultural_network
CulturalNeuron
p133
(dp134
g12
I2
sg13
I01
sba(icultural_network
CulturalNeuron
p135
(dp136
g12
I20
sg13
I01
sba(icultural_network
CulturalNeuron
p137
(dp138
g12
(irbf_knowledge
RbfKnowledge
p139
(dp140
g20
(lp141
I0
aI0
aI0
aI0
aI0
aI0
aI0
aI0
aI0
aI0
aI0
aI0
aI0
aI0
aI0
aI0
aI0
aI0
aI0
aI0
aI0
aI0
aI0
aI0
aI0
aI0
aI8
aI1
aI12
aI6
aI14
aI3
aI8
aI15
aI3
aI2
aI8
aI9
aI1
aI2
aI8
aI8
aI0
aI2
aI8
aI12
aI0
aI2
aI8
aI13
aI0
aI3
aI0
aI7
aI0
aI1
aI0
aI0
aI0
aI0
aI0
aI0
aI0
aI0
asg22
Vca
p142
sg24
S'NoSet'
p143
sbsg13
I01
sbasg26
I1
sba(icultural_network
CulturalGroup
p144
(dp145
g8
(lp146
(icultural_network
CulturalNeuron
p147
(dp148
g12
I2
sg13
I01
sba(icultural_network
CulturalNeuron
p149
(dp150
g12
I20
sg13
I01
sba(icultural_network
CulturalNeuron
p151
(dp152
g12
(irbf_knowledge
RbfKnowledge
p153
(dp154
g20
(lp155
I0
aI0
aI0
aI0
aI0
aI0
aI0
aI0
aI0
aI0
aI0
aI0
aI0
aI0
aI0
aI0
aI0
aI0
aI0
aI0
aI12
aI13
aI13
aI1
aI4
aI7
aI5
aI3
aI0
aI2
aI7
aI2
aI0
aI2
aI3
aI2
aI0
aI2
aI3
aI3
aI0
aI14
aI9
aI1
aI0
aI0
aI0
aI0
aI0
aI0
aI0
aI0
aI0
aI0
aI0
aI0
aI0
aI0
aI0
aI0
aI0
aI0
aI0
aI0
asg22
Vca
p156
sg24
g143
sbsg13
I01
sbasg26
I1
sba(icultural_network
CulturalGroup
p157
(dp158
g8
(lp159
(icultural_network
CulturalNeuron
p160
(dp161
g12
I3
sg13
I01
sba(icultural_network
CulturalNeuron
p162
(dp163
g12
I20
sg13
I01
sba(icultural_network
CulturalNeuron
p164
(dp165
g12
(irbf_knowledge
RbfKnowledge
p166
(dp167
g20
(lp168
I0
aI0
aI0
aI0
aI0
aI0
aI0
aI0
aI0
aI0
aI0
aI0
aI0
aI0
aI0
aI0
aI8
aI15
aI0
aI0
aI14
aI8
aI1
aI4
aI12
aI0
aI15
aI6
aI12
aI8
aI7
aI3
aI12
aI8
aI5
aI1
aI8
aI8
aI13
aI1
aI8
aI15
aI13
aI0
aI8
aI14
aI12
aI0
aI0
aI0
aI4
aI0
aI0
aI0
aI0
aI0
aI0
aI0
aI0
aI0
aI0
aI0
aI0
aI0
asg22
Vsa
p169
sg24
S'NoSet'
p170
sbsg13
I01
sbasg26
I1
sba(icultural_network
CulturalGroup
p171
(dp172
g8
(lp173
(icultural_network
CulturalNeuron
p174
(dp175
g12
I22
sg13
I01
sba(icultural_network
CulturalNeuron
p176
(dp177
g12
I22
sg13
I01
sba(icultural_network
CulturalNeuron
p178
(dp179
g12
(irbf_knowledge
RbfKnowledge
p180
(dp181
g20
(lp182
I0
aI0
aI0
aI0
aI0
aI0
aI0
aI0
aI0
aI0
aI0
aI0
aI0
aI0
aI0
aI0
aI0
aI0
aI0
aI0
aI0
aI0
aI0
aI0
aI0
aI0
aI0
aI0
aI2
aI0
aI0
aI0
aI12
aI2
aI0
aI0
aI0
aI8
aI5
aI0
aI4
aI2
aI8
aI0
aI0
aI9
aI4
aI0
aI12
aI8
aI3
aI0
aI0
aI0
aI0
aI0
aI0
aI0
aI0
aI0
aI0
aI0
aI0
aI0
asg22
Vaa
p183
sg24
S'NoSet'
p184
sbsg13
I01
sbasg26
I1
sba(icultural_network
CulturalGroup
p185
(dp186
g8
(lp187
(icultural_network
CulturalNeuron
p188
(dp189
g12
I4
sg13
I01
sba(icultural_network
CulturalNeuron
p190
(dp191
g12
(irbf_knowledge
RbfKnowledge
p192
(dp193
g20
(lp194
I0
aI0
aI0
aI0
aI0
aI0
aI0
aI0
aI0
aI0
aI0
aI0
aI0
aI0
aI0
aI0
aI0
aI0
aI0
aI0
aI4
aI0
aI11
aI1
aI6
aI10
aI15
aI3
aI14
aI10
aI6
aI2
aI14
aI15
aI6
aI3
aI8
aI7
aI6
aI5
aI8
aI7
aI6
aI7
aI8
aI1
aI0
aI6
aI8
aI0
aI0
aI0
aI0
aI0
aI0
aI0
aI0
aI0
aI0
aI0
aI0
aI0
aI0
aI0
asg22
Vuno
p195
sg24
S'NoSet'
p196
sbsg13
I01
sbasg26
I2
sba(icultural_network
CulturalGroup
p197
(dp198
g8
(lp199
(icultural_network
CulturalNeuron
p200
(dp201
g12
I22
sg13
I01
sba(icultural_network
CulturalNeuron
p202
(dp203
g12
(irbf_knowledge
RbfKnowledge
p204
(dp205
g20
(lp206
I0
aI0
aI0
aI0
aI0
aI0
aI0
aI0
aI0
aI0
aI0
aI0
aI0
aI0
aI0
aI0
aI0
aI0
aI0
aI0
aI0
aI8
aI15
aI0
aI0
aI12
aI11
aI0
aI0
aI4
aI9
aI0
aI0
aI4
aI9
aI0
aI0
aI0
aI9
aI0
aI0
aI2
aI15
aI0
aI0
aI2
aI1
aI0
aI0
aI0
aI0
aI0
aI0
aI0
aI0
aI0
aI0
aI0
aI0
aI0
aI0
aI0
aI0
aI0
asg22
Va
p207
sg24
g196
sbsg13
I01
sbasg26
I0
sba(icultural_network
CulturalGroup
p208
(dp209
g8
(lp210
sg26
I0
sba(icultural_network
CulturalGroup
p211
(dp212
g8
(lp213
sg26
I0
sba(icultural_network
CulturalGroup
p214
(dp215
g8
(lp216
sg26
I0
sba(icultural_network
CulturalGroup
p217
(dp218
g8
(lp219
sg26
I0
sba(icultural_network
CulturalGroup
p220
(dp221
g8
(lp222
sg26
I0
sba(icultural_network
CulturalGroup
p223
(dp224
g8
(lp225
sg26
I0
sba(icultural_network
CulturalGroup
p226
(dp227
g8
(lp228
sg26
I0
sba(icultural_network
CulturalGroup
p229
(dp230
g8
(lp231
sg26
I0
sba(icultural_network
CulturalGroup
p232
(dp233
g8
(lp234
sg26
I0
sba(icultural_network
CulturalGroup
p235
(dp236
g8
(lp237
sg26
I0
sba(icultural_network
CulturalGroup
p238
(dp239
g8
(lp240
sg26
I0
sba(icultural_network
CulturalGroup
p241
(dp242
g8
(lp243
sg26
I0
sba(icultural_network
CulturalGroup
p244
(dp245
g8
(lp246
sg26
I0
sba(icultural_network
CulturalGroup
p247
(dp248
g8
(lp249
sg26
I0
sba(icultural_network
CulturalGroup
p250
(dp251
g8
(lp252
sg26
I0
sba(icultural_network
CulturalGroup
p253
(dp254
g8
(lp255
sg26
I0
sba(icultural_network
CulturalGroup
p256
(dp257
g8
(lp258
sg26
I0
sba(icultural_network
CulturalGroup
p259
(dp260
g8
(lp261
sg26
I0
sba(icultural_network
CulturalGroup
p262
(dp263
g8
(lp264
sg26
I0
sba(icultural_network
CulturalGroup
p265
(dp266
g8
(lp267
sg26
I0
sba(icultural_network
CulturalGroup
p268
(dp269
g8
(lp270
sg26
I0
sba(icultural_network
CulturalGroup
p271
(dp272
g8
(lp273
sg26
I0
sba(icultural_network
CulturalGroup
p274
(dp275
g8
(lp276
sg26
I0
sba(icultural_network
CulturalGroup
p277
(dp278
g8
(lp279
sg26
I0
sba(icultural_network
CulturalGroup
p280
(dp281
g8
(lp282
sg26
I0
sba(icultural_network
CulturalGroup
p283
(dp284
g8
(lp285
sg26
I0
sba(icultural_network
CulturalGroup
p286
(dp287
g8
(lp288
sg26
I0
sba(icultural_network
CulturalGroup
p289
(dp290
g8
(lp291
sg26
I0
sba(icultural_network
CulturalGroup
p292
(dp293
g8
(lp294
sg26
I0
sba(icultural_network
CulturalGroup
p295
(dp296
g8
(lp297
sg26
I0
sba(icultural_network
CulturalGroup
p298
(dp299
g8
(lp300
sg26
I0
sba(icultural_network
CulturalGroup
p301
(dp302
g8
(lp303
sg26
I0
sba(icultural_network
CulturalGroup
p304
(dp305
g8
(lp306
sg26
I0
sba(icultural_network
CulturalGroup
p307
(dp308
g8
(lp309
sg26
I0
sba(icultural_network
CulturalGroup
p310
(dp311
g8
(lp312
sg26
I0
sba(icultural_network
CulturalGroup
p313
(dp314
g8
(lp315
sg26
I0
sba(icultural_network
CulturalGroup
p316
(dp317
g8
(lp318
sg26
I0
sba(icultural_network
CulturalGroup
p319
(dp320
g8
(lp321
sg26
I0
sba(icultural_network
CulturalGroup
p322
(dp323
g8
(lp324
sg26
I0
sba(icultural_network
CulturalGroup
p325
(dp326
g8
(lp327
sg26
I0
sba(icultural_network
CulturalGroup
p328
(dp329
g8
(lp330
sg26
I0
sba(icultural_network
CulturalGroup
p331
(dp332
g8
(lp333
sg26
I0
sba(icultural_network
CulturalGroup
p334
(dp335
g8
(lp336
sg26
I0
sba(icultural_network
CulturalGroup
p337
(dp338
g8
(lp339
sg26
I0
sba(icultural_network
CulturalGroup
p340
(dp341
g8
(lp342
sg26
I0
sba(icultural_network
CulturalGroup
p343
(dp344
g8
(lp345
sg26
I0
sba(icultural_network
CulturalGroup
p346
(dp347
g8
(lp348
sg26
I0
sba(icultural_network
CulturalGroup
p349
(dp350
g8
(lp351
sg26
I0
sba(icultural_network
CulturalGroup
p352
(dp353
g8
(lp354
sg26
I0
sba(icultural_network
CulturalGroup
p355
(dp356
g8
(lp357
sg26
I0
sba(icultural_network
CulturalGroup
p358
(dp359
g8
(lp360
sg26
I0
sba(icultural_network
CulturalGroup
p361
(dp362
g8
(lp363
sg26
I0
sba(icultural_network
CulturalGroup
p364
(dp365
g8
(lp366
sg26
I0
sba(icultural_network
CulturalGroup
p367
(dp368
g8
(lp369
sg26
I0
sba(icultural_network
CulturalGroup
p370
(dp371
g8
(lp372
sg26
I0
sba(icultural_network
CulturalGroup
p373
(dp374
g8
(lp375
sg26
I0
sba(icultural_network
CulturalGroup
p376
(dp377
g8
(lp378
sg26
I0
sba(icultural_network
CulturalGroup
p379
(dp380
g8
(lp381
sg26
I0
sba(icultural_network
CulturalGroup
p382
(dp383
g8
(lp384
sg26
I0
sba(icultural_network
CulturalGroup
p385
(dp386
g8
(lp387
sg26
I0
sba(icultural_network
CulturalGroup
p388
(dp389
g8
(lp390
sg26
I0
sba(icultural_network
CulturalGroup
p391
(dp392
g8
(lp393
sg26
I0
sba(icultural_network
CulturalGroup
p394
(dp395
g8
(lp396
sg26
I0
sba(icultural_network
CulturalGroup
p397
(dp398
g8
(lp399
sg26
I0
sba(icultural_network
CulturalGroup
p400
(dp401
g8
(lp402
sg26
I0
sba(icultural_network
CulturalGroup
p403
(dp404
g8
(lp405
sg26
I0
sba(icultural_network
CulturalGroup
p406
(dp407
g8
(lp408
sg26
I0
sba(icultural_network
CulturalGroup
p409
(dp410
g8
(lp411
sg26
I0
sba(icultural_network
CulturalGroup
p412
(dp413
g8
(lp414
sg26
I0
sba(icultural_network
CulturalGroup
p415
(dp416
g8
(lp417
sg26
I0
sba(icultural_network
CulturalGroup
p418
(dp419
g8
(lp420
sg26
I0
sba(icultural_network
CulturalGroup
p421
(dp422
g8
(lp423
sg26
I0
sba(icultural_network
CulturalGroup
p424
(dp425
g8
(lp426
sg26
I0
sba(icultural_network
CulturalGroup
p427
(dp428
g8
(lp429
sg26
I0
sba(icultural_network
CulturalGroup
p430
(dp431
g8
(lp432
sg26
I0
sba(icultural_network
CulturalGroup
p433
(dp434
g8
(lp435
sg26
I0
sba(icultural_network
CulturalGroup
p436
(dp437
g8
(lp438
sg26
I0
sba(icultural_network
CulturalGroup
p439
(dp440
g8
(lp441
sg26
I0
sba(icultural_network
CulturalGroup
p442
(dp443
g8
(lp444
sg26
I0
sba(icultural_network
CulturalGroup
p445
(dp446
g8
(lp447
sg26
I0
sba(icultural_network
CulturalGroup
p448
(dp449
g8
(lp450
sg26
I0
sba(icultural_network
CulturalGroup
p451
(dp452
g8
(lp453
sg26
I0
sba(icultural_network
CulturalGroup
p454
(dp455
g8
(lp456
sg26
I0
sba(icultural_network
CulturalGroup
p457
(dp458
g8
(lp459
sg26
I0
sba(icultural_network
CulturalGroup
p460
(dp461
g8
(lp462
sg26
I0
sbasS'_recognized_indexes'
p463
(lp464
sb.