(icultural_network
CulturalNetwork
p0
(dp1
S'_clack'
p2
I00
sS'_index_ready_to_learn'
p3
I11
sS'group_list'
p4
(lp5
(icultural_network
CulturalGroup
p6
(dp7
S'_group'
p8
(lp9
(icultural_network
CulturalNeuron
p10
(dp11
S'_knowledge'
p12
I0
sS'_has_knowledge'
p13
I01
sba(icultural_network
CulturalNeuron
p14
(dp15
g12
I0
sg13
I01
sba(icultural_network
CulturalNeuron
p16
(dp17
g12
(irbf_knowledge
RbfKnowledge
p18
(dp19
S'_pattern'
p20
(lp21
I0
aI0
aI0
aI0
aI0
aI8
aI1
aI0
aI0
aI0
aI3
aI12
aI0
aI0
aI2
aI6
aI0
aI0
aI14
aI3
aI0
aI0
aI15
aI3
aI0
aI8
aI15
aI3
aI0
aI12
aI15
aI1
aI8
aI12
aI15
aI0
aI8
aI15
aI7
aI0
aI0
aI14
aI1
aI0
aI0
aI7
aI0
aI0
aI8
aI3
aI0
aI0
aI12
aI3
aI0
aI0
aI12
aI3
aI0
aI0
aI0
aI0
aI0
aI0
asS'_class'
p22
S'None'
p23
sS'_set'
p24
S'NoSet'
p25
sbsg13
I01
sbasS'_index_bip'
p26
I1
sba(icultural_network
CulturalGroup
p27
(dp28
g8
(lp29
(icultural_network
CulturalNeuron
p30
(dp31
g12
I2
sg13
I01
sba(icultural_network
CulturalNeuron
p32
(dp33
g12
I1
sg13
I01
sba(icultural_network
CulturalNeuron
p34
(dp35
g12
(irbf_knowledge
RbfKnowledge
p36
(dp37
g20
(lp38
I12
aI15
aI7
aI0
aI12
aI15
aI7
aI0
aI12
aI15
aI7
aI0
aI12
aI15
aI7
aI0
aI12
aI15
aI7
aI0
aI12
aI15
aI7
aI0
aI12
aI15
aI7
aI0
aI12
aI15
aI7
aI0
aI12
aI15
aI7
aI0
aI12
aI15
aI7
aI0
aI14
aI15
aI15
aI0
aI12
aI15
aI7
aI0
aI8
aI15
aI3
aI0
aI0
aI15
aI1
aI0
aI0
aI14
aI0
aI0
aI0
aI4
aI0
aI0
asg22
S'None'
p39
sg24
S'NoSet'
p40
sbsg13
I01
sbasg26
I1
sba(icultural_network
CulturalGroup
p41
(dp42
g8
(lp43
(icultural_network
CulturalNeuron
p44
(dp45
g12
I3
sg13
I01
sba(icultural_network
CulturalNeuron
p46
(dp47
g12
I3
sg13
I01
sba(icultural_network
CulturalNeuron
p48
(dp49
g12
I3
sg13
I01
sba(icultural_network
CulturalNeuron
p50
(dp51
g12
(irbf_knowledge
RbfKnowledge
p52
(dp53
g20
(lp54
I0
aI0
aI0
aI0
aI0
aI3
aI8
aI0
aI0
aI14
aI15
aI0
aI0
aI8
aI1
aI0
aI0
aI8
aI1
aI0
aI0
aI8
aI1
aI0
aI0
aI8
aI1
aI0
aI0
aI8
aI1
aI0
aI0
aI8
aI1
aI0
aI0
aI15
aI15
aI0
aI0
aI8
aI1
aI0
aI0
aI8
aI3
aI0
aI0
aI8
aI3
aI0
aI0
aI8
aI3
aI0
aI0
aI0
aI0
aI0
aI0
aI0
aI0
aI0
asg22
S'None'
p55
sg24
S'NoSet'
p56
sbsg13
I01
sbasg26
I1
sba(icultural_network
CulturalGroup
p57
(dp58
g8
(lp59
(icultural_network
CulturalNeuron
p60
(dp61
g12
I3
sg13
I01
sba(icultural_network
CulturalNeuron
p62
(dp63
g12
I3
sg13
I01
sba(icultural_network
CulturalNeuron
p64
(dp65
g12
(irbf_knowledge
RbfKnowledge
p66
(dp67
g20
(lp68
I0
aI0
aI0
aI0
aI0
aI0
aI0
aI0
aI0
aI0
aI0
aI0
aI0
aI3
aI7
aI0
aI0
aI2
aI1
aI0
aI0
aI10
aI1
aI0
aI0
aI8
aI0
aI0
aI0
aI8
aI0
aI0
aI0
aI9
aI14
aI0
aI0
aI8
aI0
aI0
aI0
aI8
aI1
aI0
aI0
aI8
aI1
aI0
aI0
aI0
aI0
aI0
aI0
aI0
aI0
aI0
aI0
aI0
aI0
aI0
aI0
aI0
aI0
aI0
asg22
g55
sg24
g56
sbsg13
I01
sbasg26
I1
sba(icultural_network
CulturalGroup
p69
(dp70
g8
(lp71
(icultural_network
CulturalNeuron
p72
(dp73
g12
(irbf_knowledge
RbfKnowledge
p74
(dp75
g20
(lp76
I0
aI8
aI3
aI0
aI0
aI0
aI2
aI0
aI0
aI8
aI3
aI0
aI0
aI8
aI2
aI0
aI0
aI8
aI3
aI0
aI0
aI0
aI0
aI0
aI0
aI0
aI0
aI0
aI0
aI0
aI0
aI0
aI0
aI0
aI0
aI0
aI0
aI0
aI0
aI0
aI0
aI0
aI0
aI0
aI0
aI0
aI0
aI0
aI0
aI0
aI0
aI0
aI0
aI0
aI0
aI0
aI0
aI0
aI0
aI0
aI0
aI0
aI0
aI0
asg22
S'None'
p77
sg24
S'NoSet'
p78
sbsg13
I01
sbasg26
I1
sba(icultural_network
CulturalGroup
p79
(dp80
g8
(lp81
(icultural_network
CulturalNeuron
p82
(dp83
g12
I8
sg13
I01
sba(icultural_network
CulturalNeuron
p84
(dp85
g12
I11
sg13
I01
sba(icultural_network
CulturalNeuron
p86
(dp87
g12
(irbf_knowledge
RbfKnowledge
p88
(dp89
g20
(lp90
I0
aI0
aI8
aI1
aI0
aI0
aI14
aI1
aI0
aI14
aI15
aI1
aI0
aI2
aI12
aI1
aI0
aI3
aI12
aI1
aI0
aI1
aI12
aI1
aI0
aI1
aI12
aI1
aI0
aI1
aI12
aI1
aI0
aI1
aI12
aI1
aI0
aI1
aI12
aI1
aI0
aI1
aI12
aI3
aI0
aI2
aI11
aI3
aI0
aI14
aI1
aI1
aI0
aI0
aI0
aI0
aI0
aI0
aI0
aI0
aI0
aI0
aI0
aI0
asg22
S'None'
p91
sg24
S'NoSet'
p92
sbsg13
I01
sbasg26
I1
sba(icultural_network
CulturalGroup
p93
(dp94
g8
(lp95
(icultural_network
CulturalNeuron
p96
(dp97
g12
I8
sg13
I01
sba(icultural_network
CulturalNeuron
p98
(dp99
g12
I11
sg13
I01
sba(icultural_network
CulturalNeuron
p100
(dp101
g12
(irbf_knowledge
RbfKnowledge
p102
(dp103
g20
(lp104
I0
aI0
aI0
aI0
aI0
aI0
aI0
aI0
aI0
aI0
aI0
aI0
aI0
aI0
aI0
aI0
aI0
aI0
aI0
aI0
aI0
aI0
aI7
aI0
aI0
aI8
aI1
aI0
aI0
aI8
aI0
aI0
aI0
aI8
aI0
aI0
aI0
aI8
aI0
aI0
aI0
aI8
aI0
aI0
aI0
aI8
aI7
aI0
aI0
aI0
aI0
aI0
aI0
aI0
aI0
aI0
aI0
aI0
aI0
aI0
aI0
aI0
aI0
aI0
asg22
g91
sg24
g92
sbsg13
I01
sbasg26
I1
sba(icultural_network
CulturalGroup
p105
(dp106
g8
(lp107
(icultural_network
CulturalNeuron
p108
(dp109
g12
I9
sg13
I01
sba(icultural_network
CulturalNeuron
p110
(dp111
g12
I11
sg13
I01
sba(icultural_network
CulturalNeuron
p112
(dp113
g12
(irbf_knowledge
RbfKnowledge
p114
(dp115
g20
(lp116
I0
aI0
aI0
aI0
aI0
aI0
aI0
aI0
aI0
aI14
aI3
aI0
aI0
aI14
aI3
aI0
aI0
aI14
aI3
aI0
aI0
aI14
aI3
aI0
aI0
aI14
aI3
aI0
aI0
aI14
aI3
aI0
aI0
aI14
aI3
aI0
aI0
aI14
aI3
aI0
aI0
aI14
aI3
aI0
aI0
aI2
aI3
aI0
aI0
aI15
aI3
aI0
aI0
aI15
aI7
aI0
aI0
aI14
aI3
aI0
aI0
aI12
aI0
aI0
asg22
S'None'
p117
sg24
S'NoSet'
p118
sbsg13
I01
sbasg26
I1
sba(icultural_network
CulturalGroup
p119
(dp120
g8
(lp121
(icultural_network
CulturalNeuron
p122
(dp123
g12
I8
sg13
I01
sba(icultural_network
CulturalNeuron
p124
(dp125
g12
I9
sg13
I01
sba(icultural_network
CulturalNeuron
p126
(dp127
g12
(irbf_knowledge
RbfKnowledge
p128
(dp129
g20
(lp130
I0
aI0
aI0
aI0
aI0
aI0
aI0
aI0
aI0
aI0
aI0
aI0
aI0
aI0
aI0
aI0
aI0
aI0
aI0
aI0
aI0
aI0
aI0
aI0
aI0
aI12
aI2
aI0
aI8
aI3
aI4
aI0
aI8
aI0
aI4
aI0
aI8
aI1
aI6
aI0
aI0
aI3
aI3
aI0
aI0
aI2
aI0
aI0
aI0
aI0
aI0
aI0
aI0
aI0
aI0
aI0
aI0
aI0
aI0
aI0
aI0
aI0
aI0
aI0
asg22
S'None'
p131
sg24
S'NoSet'
p132
sbsg13
I01
sbasg26
I1
sba(icultural_network
CulturalGroup
p133
(dp134
g8
(lp135
(icultural_network
CulturalNeuron
p136
(dp137
g12
I12
sg13
I01
sba(icultural_network
CulturalNeuron
p138
(dp139
g12
I12
sg13
I01
sba(icultural_network
CulturalNeuron
p140
(dp141
g12
(irbf_knowledge
RbfKnowledge
p142
(dp143
g20
(lp144
I0
aI0
aI0
aI0
aI0
aI0
aI0
aI0
aI0
aI0
aI0
aI0
aI0
aI6
aI1
aI0
aI0
aI2
aI0
aI0
aI0
aI2
aI7
aI0
aI0
aI8
aI5
aI0
aI0
aI10
aI4
aI0
aI0
aI10
aI12
aI0
aI0
aI10
aI7
aI0
aI0
aI14
aI0
aI0
aI0
aI1
aI0
aI0
aI0
aI0
aI0
aI0
aI0
aI0
aI0
aI0
aI0
aI0
aI0
aI0
aI0
aI0
aI0
aI0
asg22
S'None'
p145
sg24
S'NoSet'
p146
sbsg13
I01
sbasg26
I1
sba(icultural_network
CulturalGroup
p147
(dp148
g8
(lp149
(icultural_network
CulturalNeuron
p150
(dp151
g12
I14
sg13
I01
sba(icultural_network
CulturalNeuron
p152
(dp153
g12
I1
sg13
I01
sba(icultural_network
CulturalNeuron
p154
(dp155
g12
(irbf_knowledge
RbfKnowledge
p156
(dp157
g20
(lp158
I0
aI0
aI0
aI0
aI0
aI0
aI0
aI0
aI0
aI0
aI0
aI0
aI0
aI0
aI0
aI0
aI0
aI0
aI0
aI0
aI0
aI8
aI7
aI0
aI0
aI15
aI8
aI0
aI0
aI6
aI8
aI0
aI0
aI4
aI8
aI0
aI0
aI4
aI4
aI0
aI0
aI4
aI6
aI0
aI0
aI8
aI2
aI0
aI0
aI8
aI0
aI0
aI0
aI0
aI0
aI0
aI0
aI0
aI0
aI0
aI0
aI0
aI0
aI0
asg22
S'None'
p159
sg24
S'NoSet'
p160
sbsg13
I01
sbasg26
I0
sba(icultural_network
CulturalGroup
p161
(dp162
g8
(lp163
sg26
I0
sba(icultural_network
CulturalGroup
p164
(dp165
g8
(lp166
sg26
I0
sba(icultural_network
CulturalGroup
p167
(dp168
g8
(lp169
sg26
I0
sba(icultural_network
CulturalGroup
p170
(dp171
g8
(lp172
sg26
I0
sba(icultural_network
CulturalGroup
p173
(dp174
g8
(lp175
sg26
I0
sba(icultural_network
CulturalGroup
p176
(dp177
g8
(lp178
sg26
I0
sba(icultural_network
CulturalGroup
p179
(dp180
g8
(lp181
sg26
I0
sba(icultural_network
CulturalGroup
p182
(dp183
g8
(lp184
sg26
I0
sba(icultural_network
CulturalGroup
p185
(dp186
g8
(lp187
sg26
I0
sba(icultural_network
CulturalGroup
p188
(dp189
g8
(lp190
sg26
I0
sba(icultural_network
CulturalGroup
p191
(dp192
g8
(lp193
sg26
I0
sba(icultural_network
CulturalGroup
p194
(dp195
g8
(lp196
sg26
I0
sba(icultural_network
CulturalGroup
p197
(dp198
g8
(lp199
sg26
I0
sba(icultural_network
CulturalGroup
p200
(dp201
g8
(lp202
sg26
I0
sba(icultural_network
CulturalGroup
p203
(dp204
g8
(lp205
sg26
I0
sba(icultural_network
CulturalGroup
p206
(dp207
g8
(lp208
sg26
I0
sba(icultural_network
CulturalGroup
p209
(dp210
g8
(lp211
sg26
I0
sba(icultural_network
CulturalGroup
p212
(dp213
g8
(lp214
sg26
I0
sba(icultural_network
CulturalGroup
p215
(dp216
g8
(lp217
sg26
I0
sba(icultural_network
CulturalGroup
p218
(dp219
g8
(lp220
sg26
I0
sba(icultural_network
CulturalGroup
p221
(dp222
g8
(lp223
sg26
I0
sba(icultural_network
CulturalGroup
p224
(dp225
g8
(lp226
sg26
I0
sba(icultural_network
CulturalGroup
p227
(dp228
g8
(lp229
sg26
I0
sba(icultural_network
CulturalGroup
p230
(dp231
g8
(lp232
sg26
I0
sba(icultural_network
CulturalGroup
p233
(dp234
g8
(lp235
sg26
I0
sba(icultural_network
CulturalGroup
p236
(dp237
g8
(lp238
sg26
I0
sba(icultural_network
CulturalGroup
p239
(dp240
g8
(lp241
sg26
I0
sba(icultural_network
CulturalGroup
p242
(dp243
g8
(lp244
sg26
I0
sba(icultural_network
CulturalGroup
p245
(dp246
g8
(lp247
sg26
I0
sba(icultural_network
CulturalGroup
p248
(dp249
g8
(lp250
sg26
I0
sba(icultural_network
CulturalGroup
p251
(dp252
g8
(lp253
sg26
I0
sba(icultural_network
CulturalGroup
p254
(dp255
g8
(lp256
sg26
I0
sba(icultural_network
CulturalGroup
p257
(dp258
g8
(lp259
sg26
I0
sba(icultural_network
CulturalGroup
p260
(dp261
g8
(lp262
sg26
I0
sba(icultural_network
CulturalGroup
p263
(dp264
g8
(lp265
sg26
I0
sba(icultural_network
CulturalGroup
p266
(dp267
g8
(lp268
sg26
I0
sba(icultural_network
CulturalGroup
p269
(dp270
g8
(lp271
sg26
I0
sba(icultural_network
CulturalGroup
p272
(dp273
g8
(lp274
sg26
I0
sba(icultural_network
CulturalGroup
p275
(dp276
g8
(lp277
sg26
I0
sba(icultural_network
CulturalGroup
p278
(dp279
g8
(lp280
sg26
I0
sba(icultural_network
CulturalGroup
p281
(dp282
g8
(lp283
sg26
I0
sba(icultural_network
CulturalGroup
p284
(dp285
g8
(lp286
sg26
I0
sba(icultural_network
CulturalGroup
p287
(dp288
g8
(lp289
sg26
I0
sba(icultural_network
CulturalGroup
p290
(dp291
g8
(lp292
sg26
I0
sba(icultural_network
CulturalGroup
p293
(dp294
g8
(lp295
sg26
I0
sba(icultural_network
CulturalGroup
p296
(dp297
g8
(lp298
sg26
I0
sba(icultural_network
CulturalGroup
p299
(dp300
g8
(lp301
sg26
I0
sba(icultural_network
CulturalGroup
p302
(dp303
g8
(lp304
sg26
I0
sba(icultural_network
CulturalGroup
p305
(dp306
g8
(lp307
sg26
I0
sba(icultural_network
CulturalGroup
p308
(dp309
g8
(lp310
sg26
I0
sba(icultural_network
CulturalGroup
p311
(dp312
g8
(lp313
sg26
I0
sba(icultural_network
CulturalGroup
p314
(dp315
g8
(lp316
sg26
I0
sba(icultural_network
CulturalGroup
p317
(dp318
g8
(lp319
sg26
I0
sba(icultural_network
CulturalGroup
p320
(dp321
g8
(lp322
sg26
I0
sba(icultural_network
CulturalGroup
p323
(dp324
g8
(lp325
sg26
I0
sba(icultural_network
CulturalGroup
p326
(dp327
g8
(lp328
sg26
I0
sba(icultural_network
CulturalGroup
p329
(dp330
g8
(lp331
sg26
I0
sba(icultural_network
CulturalGroup
p332
(dp333
g8
(lp334
sg26
I0
sba(icultural_network
CulturalGroup
p335
(dp336
g8
(lp337
sg26
I0
sba(icultural_network
CulturalGroup
p338
(dp339
g8
(lp340
sg26
I0
sba(icultural_network
CulturalGroup
p341
(dp342
g8
(lp343
sg26
I0
sba(icultural_network
CulturalGroup
p344
(dp345
g8
(lp346
sg26
I0
sba(icultural_network
CulturalGroup
p347
(dp348
g8
(lp349
sg26
I0
sba(icultural_network
CulturalGroup
p350
(dp351
g8
(lp352
sg26
I0
sba(icultural_network
CulturalGroup
p353
(dp354
g8
(lp355
sg26
I0
sba(icultural_network
CulturalGroup
p356
(dp357
g8
(lp358
sg26
I0
sba(icultural_network
CulturalGroup
p359
(dp360
g8
(lp361
sg26
I0
sba(icultural_network
CulturalGroup
p362
(dp363
g8
(lp364
sg26
I0
sba(icultural_network
CulturalGroup
p365
(dp366
g8
(lp367
sg26
I0
sba(icultural_network
CulturalGroup
p368
(dp369
g8
(lp370
sg26
I0
sba(icultural_network
CulturalGroup
p371
(dp372
g8
(lp373
sg26
I0
sba(icultural_network
CulturalGroup
p374
(dp375
g8
(lp376
sg26
I0
sba(icultural_network
CulturalGroup
p377
(dp378
g8
(lp379
sg26
I0
sba(icultural_network
CulturalGroup
p380
(dp381
g8
(lp382
sg26
I0
sba(icultural_network
CulturalGroup
p383
(dp384
g8
(lp385
sg26
I0
sba(icultural_network
CulturalGroup
p386
(dp387
g8
(lp388
sg26
I0
sba(icultural_network
CulturalGroup
p389
(dp390
g8
(lp391
sg26
I0
sba(icultural_network
CulturalGroup
p392
(dp393
g8
(lp394
sg26
I0
sba(icultural_network
CulturalGroup
p395
(dp396
g8
(lp397
sg26
I0
sba(icultural_network
CulturalGroup
p398
(dp399
g8
(lp400
sg26
I0
sba(icultural_network
CulturalGroup
p401
(dp402
g8
(lp403
sg26
I0
sba(icultural_network
CulturalGroup
p404
(dp405
g8
(lp406
sg26
I0
sba(icultural_network
CulturalGroup
p407
(dp408
g8
(lp409
sg26
I0
sba(icultural_network
CulturalGroup
p410
(dp411
g8
(lp412
sg26
I0
sba(icultural_network
CulturalGroup
p413
(dp414
g8
(lp415
sg26
I0
sba(icultural_network
CulturalGroup
p416
(dp417
g8
(lp418
sg26
I0
sba(icultural_network
CulturalGroup
p419
(dp420
g8
(lp421
sg26
I0
sba(icultural_network
CulturalGroup
p422
(dp423
g8
(lp424
sg26
I0
sba(icultural_network
CulturalGroup
p425
(dp426
g8
(lp427
sg26
I0
sbasS'_recognized_indexes'
p428
(lp429
sb.