(icultural_network
CulturalNetwork
p0
(dp1
S'_clack'
p2
I00
sS'_index_ready_to_learn'
p3
I0
sS'group_list'
p4
(lp5
(icultural_network
CulturalGroup
p6
(dp7
S'_group'
p8
(lp9
sS'_index_bip'
p10
I0
sba(icultural_network
CulturalGroup
p11
(dp12
g8
(lp13
sg10
I0
sba(icultural_network
CulturalGroup
p14
(dp15
g8
(lp16
sg10
I0
sba(icultural_network
CulturalGroup
p17
(dp18
g8
(lp19
sg10
I0
sba(icultural_network
CulturalGroup
p20
(dp21
g8
(lp22
sg10
I0
sba(icultural_network
CulturalGroup
p23
(dp24
g8
(lp25
sg10
I0
sba(icultural_network
CulturalGroup
p26
(dp27
g8
(lp28
sg10
I0
sba(icultural_network
CulturalGroup
p29
(dp30
g8
(lp31
sg10
I0
sba(icultural_network
CulturalGroup
p32
(dp33
g8
(lp34
sg10
I0
sba(icultural_network
CulturalGroup
p35
(dp36
g8
(lp37
sg10
I0
sba(icultural_network
CulturalGroup
p38
(dp39
g8
(lp40
sg10
I0
sba(icultural_network
CulturalGroup
p41
(dp42
g8
(lp43
sg10
I0
sba(icultural_network
CulturalGroup
p44
(dp45
g8
(lp46
sg10
I0
sba(icultural_network
CulturalGroup
p47
(dp48
g8
(lp49
sg10
I0
sba(icultural_network
CulturalGroup
p50
(dp51
g8
(lp52
sg10
I0
sba(icultural_network
CulturalGroup
p53
(dp54
g8
(lp55
sg10
I0
sba(icultural_network
CulturalGroup
p56
(dp57
g8
(lp58
sg10
I0
sba(icultural_network
CulturalGroup
p59
(dp60
g8
(lp61
sg10
I0
sba(icultural_network
CulturalGroup
p62
(dp63
g8
(lp64
sg10
I0
sba(icultural_network
CulturalGroup
p65
(dp66
g8
(lp67
sg10
I0
sba(icultural_network
CulturalGroup
p68
(dp69
g8
(lp70
sg10
I0
sba(icultural_network
CulturalGroup
p71
(dp72
g8
(lp73
sg10
I0
sba(icultural_network
CulturalGroup
p74
(dp75
g8
(lp76
sg10
I0
sba(icultural_network
CulturalGroup
p77
(dp78
g8
(lp79
sg10
I0
sba(icultural_network
CulturalGroup
p80
(dp81
g8
(lp82
sg10
I0
sba(icultural_network
CulturalGroup
p83
(dp84
g8
(lp85
sg10
I0
sba(icultural_network
CulturalGroup
p86
(dp87
g8
(lp88
sg10
I0
sba(icultural_network
CulturalGroup
p89
(dp90
g8
(lp91
sg10
I0
sba(icultural_network
CulturalGroup
p92
(dp93
g8
(lp94
sg10
I0
sba(icultural_network
CulturalGroup
p95
(dp96
g8
(lp97
sg10
I0
sba(icultural_network
CulturalGroup
p98
(dp99
g8
(lp100
sg10
I0
sba(icultural_network
CulturalGroup
p101
(dp102
g8
(lp103
sg10
I0
sba(icultural_network
CulturalGroup
p104
(dp105
g8
(lp106
sg10
I0
sba(icultural_network
CulturalGroup
p107
(dp108
g8
(lp109
sg10
I0
sba(icultural_network
CulturalGroup
p110
(dp111
g8
(lp112
sg10
I0
sba(icultural_network
CulturalGroup
p113
(dp114
g8
(lp115
sg10
I0
sba(icultural_network
CulturalGroup
p116
(dp117
g8
(lp118
sg10
I0
sba(icultural_network
CulturalGroup
p119
(dp120
g8
(lp121
sg10
I0
sba(icultural_network
CulturalGroup
p122
(dp123
g8
(lp124
sg10
I0
sba(icultural_network
CulturalGroup
p125
(dp126
g8
(lp127
sg10
I0
sba(icultural_network
CulturalGroup
p128
(dp129
g8
(lp130
sg10
I0
sba(icultural_network
CulturalGroup
p131
(dp132
g8
(lp133
sg10
I0
sba(icultural_network
CulturalGroup
p134
(dp135
g8
(lp136
sg10
I0
sba(icultural_network
CulturalGroup
p137
(dp138
g8
(lp139
sg10
I0
sba(icultural_network
CulturalGroup
p140
(dp141
g8
(lp142
sg10
I0
sba(icultural_network
CulturalGroup
p143
(dp144
g8
(lp145
sg10
I0
sba(icultural_network
CulturalGroup
p146
(dp147
g8
(lp148
sg10
I0
sba(icultural_network
CulturalGroup
p149
(dp150
g8
(lp151
sg10
I0
sba(icultural_network
CulturalGroup
p152
(dp153
g8
(lp154
sg10
I0
sba(icultural_network
CulturalGroup
p155
(dp156
g8
(lp157
sg10
I0
sba(icultural_network
CulturalGroup
p158
(dp159
g8
(lp160
sg10
I0
sba(icultural_network
CulturalGroup
p161
(dp162
g8
(lp163
sg10
I0
sba(icultural_network
CulturalGroup
p164
(dp165
g8
(lp166
sg10
I0
sba(icultural_network
CulturalGroup
p167
(dp168
g8
(lp169
sg10
I0
sba(icultural_network
CulturalGroup
p170
(dp171
g8
(lp172
sg10
I0
sba(icultural_network
CulturalGroup
p173
(dp174
g8
(lp175
sg10
I0
sba(icultural_network
CulturalGroup
p176
(dp177
g8
(lp178
sg10
I0
sba(icultural_network
CulturalGroup
p179
(dp180
g8
(lp181
sg10
I0
sba(icultural_network
CulturalGroup
p182
(dp183
g8
(lp184
sg10
I0
sba(icultural_network
CulturalGroup
p185
(dp186
g8
(lp187
sg10
I0
sba(icultural_network
CulturalGroup
p188
(dp189
g8
(lp190
sg10
I0
sba(icultural_network
CulturalGroup
p191
(dp192
g8
(lp193
sg10
I0
sba(icultural_network
CulturalGroup
p194
(dp195
g8
(lp196
sg10
I0
sba(icultural_network
CulturalGroup
p197
(dp198
g8
(lp199
sg10
I0
sba(icultural_network
CulturalGroup
p200
(dp201
g8
(lp202
sg10
I0
sba(icultural_network
CulturalGroup
p203
(dp204
g8
(lp205
sg10
I0
sba(icultural_network
CulturalGroup
p206
(dp207
g8
(lp208
sg10
I0
sba(icultural_network
CulturalGroup
p209
(dp210
g8
(lp211
sg10
I0
sba(icultural_network
CulturalGroup
p212
(dp213
g8
(lp214
sg10
I0
sba(icultural_network
CulturalGroup
p215
(dp216
g8
(lp217
sg10
I0
sba(icultural_network
CulturalGroup
p218
(dp219
g8
(lp220
sg10
I0
sba(icultural_network
CulturalGroup
p221
(dp222
g8
(lp223
sg10
I0
sba(icultural_network
CulturalGroup
p224
(dp225
g8
(lp226
sg10
I0
sba(icultural_network
CulturalGroup
p227
(dp228
g8
(lp229
sg10
I0
sba(icultural_network
CulturalGroup
p230
(dp231
g8
(lp232
sg10
I0
sba(icultural_network
CulturalGroup
p233
(dp234
g8
(lp235
sg10
I0
sba(icultural_network
CulturalGroup
p236
(dp237
g8
(lp238
sg10
I0
sba(icultural_network
CulturalGroup
p239
(dp240
g8
(lp241
sg10
I0
sba(icultural_network
CulturalGroup
p242
(dp243
g8
(lp244
sg10
I0
sba(icultural_network
CulturalGroup
p245
(dp246
g8
(lp247
sg10
I0
sba(icultural_network
CulturalGroup
p248
(dp249
g8
(lp250
sg10
I0
sba(icultural_network
CulturalGroup
p251
(dp252
g8
(lp253
sg10
I0
sba(icultural_network
CulturalGroup
p254
(dp255
g8
(lp256
sg10
I0
sba(icultural_network
CulturalGroup
p257
(dp258
g8
(lp259
sg10
I0
sba(icultural_network
CulturalGroup
p260
(dp261
g8
(lp262
sg10
I0
sba(icultural_network
CulturalGroup
p263
(dp264
g8
(lp265
sg10
I0
sba(icultural_network
CulturalGroup
p266
(dp267
g8
(lp268
sg10
I0
sba(icultural_network
CulturalGroup
p269
(dp270
g8
(lp271
sg10
I0
sba(icultural_network
CulturalGroup
p272
(dp273
g8
(lp274
sg10
I0
sba(icultural_network
CulturalGroup
p275
(dp276
g8
(lp277
sg10
I0
sba(icultural_network
CulturalGroup
p278
(dp279
g8
(lp280
sg10
I0
sba(icultural_network
CulturalGroup
p281
(dp282
g8
(lp283
sg10
I0
sba(icultural_network
CulturalGroup
p284
(dp285
g8
(lp286
sg10
I0
sba(icultural_network
CulturalGroup
p287
(dp288
g8
(lp289
sg10
I0
sba(icultural_network
CulturalGroup
p290
(dp291
g8
(lp292
sg10
I0
sba(icultural_network
CulturalGroup
p293
(dp294
g8
(lp295
sg10
I0
sba(icultural_network
CulturalGroup
p296
(dp297
g8
(lp298
sg10
I0
sba(icultural_network
CulturalGroup
p299
(dp300
g8
(lp301
sg10
I0
sba(icultural_network
CulturalGroup
p302
(dp303
g8
(lp304
sg10
I0
sba(icultural_network
CulturalGroup
p305
(dp306
g8
(lp307
sg10
I0
sbasS'_recognized_indexes'
p308
(lp309
sb.